
D:\sunny\stm32\therme\Project\RIDE\STM3210C-EVAL\icmp.o:     file format elf32-littlearm
D:\sunny\stm32\therme\Project\RIDE\STM3210C-EVAL\icmp.o


Disassembly of section .text.icmp_send_response.clone.0:

00000000 <icmp_send_response.clone.0>:
icmp_send_response():
D:\sunny\stm32\therme\Utilities\lwip-1.3.1\src\core\ipv4/icmp.c:287
 *          p->payload pointing to the IP header
 * @param type Type of the ICMP header
 * @param code Code of the ICMP header
 */
static void
icmp_send_response(struct pbuf *p, u8_t type, u8_t code)
   0:	e92d 43f0 	stmdb	sp!, {r4, r5, r6, r7, r8, r9, lr}
   4:	4680      	mov	r8, r0
   6:	b085      	sub	sp, #20
   8:	4689      	mov	r9, r1
   a:	4616      	mov	r6, r2
D:\sunny\stm32\therme\Utilities\lwip-1.3.1\src\core\ipv4/icmp.c:296
  /* we can use the echo header here */
  struct icmp_echo_hdr *icmphdr;
  ip_addr_t iphdr_src;

  /* ICMP header + IP header + 8 bytes of data */
  q = pbuf_alloc(PBUF_IP, sizeof(struct icmp_echo_hdr) + IP_HLEN + ICMP_DEST_UNREACH_DATASIZE,
   c:	2001      	movs	r0, #1
   e:	2124      	movs	r1, #36	; 0x24
  10:	2200      	movs	r2, #0
  12:	f7ff fffe 	bl	0 <pbuf_alloc>
D:\sunny\stm32\therme\Utilities\lwip-1.3.1\src\core\ipv4/icmp.c:298
                 PBUF_RAM);
  if (q == NULL) {
  16:	4604      	mov	r4, r0
  18:	2800      	cmp	r0, #0
  1a:	d032      	beq.n	82 <icmp_send_response.clone.0+0x82>
D:\sunny\stm32\therme\Utilities\lwip-1.3.1\src\core\ipv4/icmp.c:312
  ip_addr_debug_print(ICMP_DEBUG, &(iphdr->src));
  LWIP_DEBUGF(ICMP_DEBUG, (" to "));
  ip_addr_debug_print(ICMP_DEBUG, &(iphdr->dest));
  LWIP_DEBUGF(ICMP_DEBUG, ("\n"));

  icmphdr = (struct icmp_echo_hdr *)q->payload;
  1c:	6845      	ldr	r5, [r0, #4]
D:\sunny\stm32\therme\Utilities\lwip-1.3.1\src\core\ipv4/icmp.c:305
    return;
  }
  LWIP_ASSERT("check that first pbuf can hold icmp message",
             (q->len >= (sizeof(struct icmp_echo_hdr) + IP_HLEN + ICMP_DEST_UNREACH_DATASIZE)));

  iphdr = (struct ip_hdr *)p->payload;
  1e:	f8d8 7000 	ldr.w	r7, [r8]
D:\sunny\stm32\therme\Utilities\lwip-1.3.1\src\core\ipv4/icmp.c:314
  ip_addr_debug_print(ICMP_DEBUG, &(iphdr->dest));
  LWIP_DEBUGF(ICMP_DEBUG, ("\n"));

  icmphdr = (struct icmp_echo_hdr *)q->payload;
  icmphdr->type = type;
  icmphdr->code = code;
  22:	706e      	strb	r6, [r5, #1]
D:\sunny\stm32\therme\Utilities\lwip-1.3.1\src\core\ipv4/icmp.c:315
  icmphdr->id = 0;
  24:	2600      	movs	r6, #0
D:\sunny\stm32\therme\Utilities\lwip-1.3.1\src\core\ipv4/icmp.c:313
  LWIP_DEBUGF(ICMP_DEBUG, (" to "));
  ip_addr_debug_print(ICMP_DEBUG, &(iphdr->dest));
  LWIP_DEBUGF(ICMP_DEBUG, ("\n"));

  icmphdr = (struct icmp_echo_hdr *)q->payload;
  icmphdr->type = type;
  26:	f885 9000 	strb.w	r9, [r5]
D:\sunny\stm32\therme\Utilities\lwip-1.3.1\src\core\ipv4/icmp.c:315
  icmphdr->code = code;
  icmphdr->id = 0;
  2a:	712e      	strb	r6, [r5, #4]
  2c:	716e      	strb	r6, [r5, #5]
D:\sunny\stm32\therme\Utilities\lwip-1.3.1\src\core\ipv4/icmp.c:316
  icmphdr->seqno = 0;
  2e:	71ae      	strb	r6, [r5, #6]
  30:	71ee      	strb	r6, [r5, #7]
D:\sunny\stm32\therme\Utilities\lwip-1.3.1\src\core\ipv4/icmp.c:319

  /* copy fields from original packet */
  SMEMCPY((u8_t *)q->payload + sizeof(struct icmp_echo_hdr), (u8_t *)p->payload,
  32:	6840      	ldr	r0, [r0, #4]
  34:	221c      	movs	r2, #28
  36:	f8d8 1000 	ldr.w	r1, [r8]
  3a:	3008      	adds	r0, #8
  3c:	f7ff fffe 	bl	0 <memcpy>
D:\sunny\stm32\therme\Utilities\lwip-1.3.1\src\core\ipv4/icmp.c:323
          IP_HLEN + ICMP_DEST_UNREACH_DATASIZE);

  /* calculate checksum */
  icmphdr->chksum = 0;
  40:	70ae      	strb	r6, [r5, #2]
  42:	70ee      	strb	r6, [r5, #3]
D:\sunny\stm32\therme\Utilities\lwip-1.3.1\src\core\ipv4/icmp.c:324
  icmphdr->chksum = inet_chksum(icmphdr, q->len);
  44:	8961      	ldrh	r1, [r4, #10]
  46:	4628      	mov	r0, r5
  48:	f7ff fffe 	bl	0 <inet_chksum>
  4c:	70a8      	strb	r0, [r5, #2]
  4e:	0a00      	lsrs	r0, r0, #8
  50:	70e8      	strb	r0, [r5, #3]
D:\sunny\stm32\therme\Utilities\lwip-1.3.1\src\core\ipv4/icmp.c:330
  ICMP_STATS_INC(icmp.xmit);
  /* increase number of messages attempted to send */
  snmp_inc_icmpoutmsgs();
  /* increase number of destination unreachable messages attempted to send */
  snmp_inc_icmpouttimeexcds();
  ip_addr_copy(iphdr_src, iphdr->src);
  52:	7b7a      	ldrb	r2, [r7, #13]
  54:	7b3b      	ldrb	r3, [r7, #12]
D:\sunny\stm32\therme\Utilities\lwip-1.3.1\src\core\ipv4/icmp.c:331
  ip_output(q, NULL, &iphdr_src, ICMP_TTL, 0, IP_PROTO_ICMP);
  56:	4620      	mov	r0, r4
D:\sunny\stm32\therme\Utilities\lwip-1.3.1\src\core\ipv4/icmp.c:330
  ICMP_STATS_INC(icmp.xmit);
  /* increase number of messages attempted to send */
  snmp_inc_icmpoutmsgs();
  /* increase number of destination unreachable messages attempted to send */
  snmp_inc_icmpouttimeexcds();
  ip_addr_copy(iphdr_src, iphdr->src);
  58:	ea43 2302 	orr.w	r3, r3, r2, lsl #8
  5c:	7bba      	ldrb	r2, [r7, #14]
D:\sunny\stm32\therme\Utilities\lwip-1.3.1\src\core\ipv4/icmp.c:331
  ip_output(q, NULL, &iphdr_src, ICMP_TTL, 0, IP_PROTO_ICMP);
  5e:	4631      	mov	r1, r6
D:\sunny\stm32\therme\Utilities\lwip-1.3.1\src\core\ipv4/icmp.c:330
  ICMP_STATS_INC(icmp.xmit);
  /* increase number of messages attempted to send */
  snmp_inc_icmpoutmsgs();
  /* increase number of destination unreachable messages attempted to send */
  snmp_inc_icmpouttimeexcds();
  ip_addr_copy(iphdr_src, iphdr->src);
  60:	ea43 4302 	orr.w	r3, r3, r2, lsl #16
  64:	7bfa      	ldrb	r2, [r7, #15]
  66:	ea43 6302 	orr.w	r3, r3, r2, lsl #24
  6a:	aa04      	add	r2, sp, #16
  6c:	f842 3d04 	str.w	r3, [r2, #-4]!
D:\sunny\stm32\therme\Utilities\lwip-1.3.1\src\core\ipv4/icmp.c:331
  ip_output(q, NULL, &iphdr_src, ICMP_TTL, 0, IP_PROTO_ICMP);
  70:	2301      	movs	r3, #1
  72:	9301      	str	r3, [sp, #4]
  74:	33fe      	adds	r3, #254	; 0xfe
  76:	9600      	str	r6, [sp, #0]
  78:	f7ff fffe 	bl	0 <ip_output>
D:\sunny\stm32\therme\Utilities\lwip-1.3.1\src\core\ipv4/icmp.c:332
  pbuf_free(q);
  7c:	4620      	mov	r0, r4
  7e:	f7ff fffe 	bl	0 <pbuf_free>
D:\sunny\stm32\therme\Utilities\lwip-1.3.1\src\core\ipv4/icmp.c:333
}
  82:	b005      	add	sp, #20
  84:	e8bd 83f0 	ldmia.w	sp!, {r4, r5, r6, r7, r8, r9, pc}

Disassembly of section .text.icmp_input:

00000000 <icmp_input>:
icmp_input():
D:\sunny\stm32\therme\Utilities\lwip-1.3.1\src\core\ipv4/icmp.c:78
 * @param p the icmp echo request packet, p->payload pointing to the ip header
 * @param inp the netif on which this packet was received
 */
void
icmp_input(struct pbuf *p, struct netif *inp)
{
   0:	e92d 47ff 	stmdb	sp!, {r0, r1, r2, r3, r4, r5, r6, r7, r8, r9, sl, lr}
D:\sunny\stm32\therme\Utilities\lwip-1.3.1\src\core\ipv4/icmp.c:91

  ICMP_STATS_INC(icmp.recv);
  snmp_inc_icmpinmsgs();


  iphdr = (struct ip_hdr *)p->payload;
   4:	f8d0 9004 	ldr.w	r9, [r0, #4]
D:\sunny\stm32\therme\Utilities\lwip-1.3.1\src\core\ipv4/icmp.c:78
 * @param p the icmp echo request packet, p->payload pointing to the ip header
 * @param inp the netif on which this packet was received
 */
void
icmp_input(struct pbuf *p, struct netif *inp)
{
   8:	4604      	mov	r4, r0
D:\sunny\stm32\therme\Utilities\lwip-1.3.1\src\core\ipv4/icmp.c:92
  ICMP_STATS_INC(icmp.recv);
  snmp_inc_icmpinmsgs();


  iphdr = (struct ip_hdr *)p->payload;
  hlen = IPH_HL(iphdr) * 4;
   a:	f899 3000 	ldrb.w	r3, [r9]
   e:	f899 0001 	ldrb.w	r0, [r9, #1]
D:\sunny\stm32\therme\Utilities\lwip-1.3.1\src\core\ipv4/icmp.c:78
 * @param p the icmp echo request packet, p->payload pointing to the ip header
 * @param inp the netif on which this packet was received
 */
void
icmp_input(struct pbuf *p, struct netif *inp)
{
  12:	460f      	mov	r7, r1
D:\sunny\stm32\therme\Utilities\lwip-1.3.1\src\core\ipv4/icmp.c:92
  ICMP_STATS_INC(icmp.recv);
  snmp_inc_icmpinmsgs();


  iphdr = (struct ip_hdr *)p->payload;
  hlen = IPH_HL(iphdr) * 4;
  14:	ea43 2000 	orr.w	r0, r3, r0, lsl #8
  18:	f7ff fffe 	bl	0 <lwip_ntohs>
  1c:	0980      	lsrs	r0, r0, #6
  1e:	f000 063c 	and.w	r6, r0, #60	; 0x3c
D:\sunny\stm32\therme\Utilities\lwip-1.3.1\src\core\ipv4/icmp.c:93
  if (pbuf_header(p, -hlen) || (p->tot_len < sizeof(u16_t)*2)) {
  22:	f1c6 0800 	rsb	r8, r6, #0
  26:	fa1f f888 	uxth.w	r8, r8
  2a:	4620      	mov	r0, r4
  2c:	fa0f f188 	sxth.w	r1, r8
  30:	f7ff fffe 	bl	0 <pbuf_header>
  34:	2800      	cmp	r0, #0
  36:	f040 808e 	bne.w	156 <icmp_input+0x156>
  3a:	8923      	ldrh	r3, [r4, #8]
  3c:	2b03      	cmp	r3, #3
  3e:	f240 808a 	bls.w	156 <icmp_input+0x156>
D:\sunny\stm32\therme\Utilities\lwip-1.3.1\src\core\ipv4/icmp.c:98
    LWIP_DEBUGF(ICMP_DEBUG, ("icmp_input: short ICMP (%"U16_F" bytes) received\n", p->tot_len));
    goto lenerr;
  }

  type = *((u8_t *)p->payload);
  42:	6863      	ldr	r3, [r4, #4]
D:\sunny\stm32\therme\Utilities\lwip-1.3.1\src\core\ipv4/icmp.c:102
#ifdef LWIP_DEBUG
  code = *(((u8_t *)p->payload)+1);
#endif /* LWIP_DEBUG */
  switch (type) {
  44:	781b      	ldrb	r3, [r3, #0]
  46:	2b08      	cmp	r3, #8
  48:	f040 8085 	bne.w	156 <icmp_input+0x156>
D:\sunny\stm32\therme\Utilities\lwip-1.3.1\src\core\ipv4/icmp.c:113
#if !LWIP_MULTICAST_PING || !LWIP_BROADCAST_PING
    {
      int accepted = 1;
#if !LWIP_MULTICAST_PING
      /* multicast destination address? */
      if (ip_addr_ismulticast(&current_iphdr_dest)) {
  4c:	4d45      	ldr	r5, [pc, #276]	; (164 <icmp_input+0x164>)
D:\sunny\stm32\therme\Utilities\lwip-1.3.1\src\core\ipv4/icmp.c:119
        accepted = 0;
      }
#endif /* LWIP_MULTICAST_PING */
#if !LWIP_BROADCAST_PING
      /* broadcast destination address? */
      if (ip_addr_isbroadcast(&current_iphdr_dest, inp)) {
  4e:	4639      	mov	r1, r7
D:\sunny\stm32\therme\Utilities\lwip-1.3.1\src\core\ipv4/icmp.c:113
#if !LWIP_MULTICAST_PING || !LWIP_BROADCAST_PING
    {
      int accepted = 1;
#if !LWIP_MULTICAST_PING
      /* multicast destination address? */
      if (ip_addr_ismulticast(&current_iphdr_dest)) {
  50:	f8d5 a000 	ldr.w	sl, [r5]
D:\sunny\stm32\therme\Utilities\lwip-1.3.1\src\core\ipv4/icmp.c:119
        accepted = 0;
      }
#endif /* LWIP_MULTICAST_PING */
#if !LWIP_BROADCAST_PING
      /* broadcast destination address? */
      if (ip_addr_isbroadcast(&current_iphdr_dest, inp)) {
  54:	4650      	mov	r0, sl
  56:	f7ff fffe 	bl	0 <ip4_addr_isbroadcast>
  5a:	2800      	cmp	r0, #0
  5c:	d17b      	bne.n	156 <icmp_input+0x156>
D:\sunny\stm32\therme\Utilities\lwip-1.3.1\src\core\ipv4/icmp.c:113
#if !LWIP_MULTICAST_PING || !LWIP_BROADCAST_PING
    {
      int accepted = 1;
#if !LWIP_MULTICAST_PING
      /* multicast destination address? */
      if (ip_addr_ismulticast(&current_iphdr_dest)) {
  5e:	f00a 0af0 	and.w	sl, sl, #240	; 0xf0
D:\sunny\stm32\therme\Utilities\lwip-1.3.1\src\core\ipv4/icmp.c:124
      if (ip_addr_isbroadcast(&current_iphdr_dest, inp)) {
        accepted = 0;
      }
#endif /* LWIP_BROADCAST_PING */
      /* broadcast or multicast destination address not acceptd? */
      if (!accepted) {
  62:	f1ba 0fe0 	cmp.w	sl, #224	; 0xe0
  66:	d076      	beq.n	156 <icmp_input+0x156>
D:\sunny\stm32\therme\Utilities\lwip-1.3.1\src\core\ipv4/icmp.c:133
        return;
      }
    }
#endif /* !LWIP_MULTICAST_PING || !LWIP_BROADCAST_PING */
    LWIP_DEBUGF(ICMP_DEBUG, ("icmp_input: ping\n"));
    if (p->tot_len < sizeof(struct icmp_echo_hdr)) {
  68:	8923      	ldrh	r3, [r4, #8]
  6a:	2b07      	cmp	r3, #7
  6c:	d973      	bls.n	156 <icmp_input+0x156>
D:\sunny\stm32\therme\Utilities\lwip-1.3.1\src\core\ipv4/icmp.c:137
      LWIP_DEBUGF(ICMP_DEBUG, ("icmp_input: bad ICMP echo received\n"));
      goto lenerr;
    }
    if (inet_chksum_pbuf(p) != 0) {
  6e:	4620      	mov	r0, r4
  70:	f7ff fffe 	bl	0 <inet_chksum_pbuf>
  74:	2800      	cmp	r0, #0
  76:	d16e      	bne.n	156 <icmp_input+0x156>
D:\sunny\stm32\therme\Utilities\lwip-1.3.1\src\core\ipv4/icmp.c:145
      ICMP_STATS_INC(icmp.chkerr);
      snmp_inc_icmpinerrors();
      return;
    }
#if LWIP_ICMP_ECHO_CHECK_INPUT_PBUF_LEN
    if (pbuf_header(p, (PBUF_IP_HLEN + PBUF_LINK_HLEN))) {
  78:	4620      	mov	r0, r4
  7a:	2122      	movs	r1, #34	; 0x22
  7c:	f7ff fffe 	bl	0 <pbuf_header>
  80:	b300      	cbz	r0, c4 <icmp_input+0xc4>
D:\sunny\stm32\therme\Utilities\lwip-1.3.1\src\core\ipv4/icmp.c:151
      /* p is not big enough to contain link headers
       * allocate a new one and copy p into it
       */
      struct pbuf *r;
      /* switch p->payload to ip header */
      if (pbuf_header(p, hlen)) {
  82:	4620      	mov	r0, r4
  84:	4631      	mov	r1, r6
  86:	f7ff fffe 	bl	0 <pbuf_header>
  8a:	4602      	mov	r2, r0
  8c:	2800      	cmp	r0, #0
  8e:	d162      	bne.n	156 <icmp_input+0x156>
D:\sunny\stm32\therme\Utilities\lwip-1.3.1\src\core\ipv4/icmp.c:156
        LWIP_ASSERT("icmp_input: moving p->payload to ip header failed\n", 0);
        goto memerr;
      }
      /* allocate new packet buffer with space for link headers */
      r = pbuf_alloc(PBUF_LINK, p->tot_len, PBUF_RAM);
  90:	2002      	movs	r0, #2
  92:	8921      	ldrh	r1, [r4, #8]
  94:	f7ff fffe 	bl	0 <pbuf_alloc>
D:\sunny\stm32\therme\Utilities\lwip-1.3.1\src\core\ipv4/icmp.c:157
      if (r == NULL) {
  98:	4682      	mov	sl, r0
  9a:	2800      	cmp	r0, #0
  9c:	d05b      	beq.n	156 <icmp_input+0x156>
D:\sunny\stm32\therme\Utilities\lwip-1.3.1\src\core\ipv4/icmp.c:164
        goto memerr;
      }
      LWIP_ASSERT("check that first pbuf can hold struct the ICMP header",
                  (r->len >= hlen + sizeof(struct icmp_echo_hdr)));
      /* copy the whole packet including ip header */
      if (pbuf_copy(r, p) != ERR_OK) {
  9e:	4621      	mov	r1, r4
  a0:	f7ff fffe 	bl	0 <pbuf_copy>
  a4:	2800      	cmp	r0, #0
  a6:	d156      	bne.n	156 <icmp_input+0x156>
D:\sunny\stm32\therme\Utilities\lwip-1.3.1\src\core\ipv4/icmp.c:170
        LWIP_ASSERT("icmp_input: copying to new pbuf failed\n", 0);
        goto memerr;
      }
      iphdr = (struct ip_hdr *)r->payload;
      /* switch r->payload back to icmp header */
      if (pbuf_header(r, -hlen)) {
  a8:	4650      	mov	r0, sl
  aa:	fa0f f188 	sxth.w	r1, r8
D:\sunny\stm32\therme\Utilities\lwip-1.3.1\src\core\ipv4/icmp.c:168
      /* copy the whole packet including ip header */
      if (pbuf_copy(r, p) != ERR_OK) {
        LWIP_ASSERT("icmp_input: copying to new pbuf failed\n", 0);
        goto memerr;
      }
      iphdr = (struct ip_hdr *)r->payload;
  ae:	f8da 9004 	ldr.w	r9, [sl, #4]
D:\sunny\stm32\therme\Utilities\lwip-1.3.1\src\core\ipv4/icmp.c:170
      /* switch r->payload back to icmp header */
      if (pbuf_header(r, -hlen)) {
  b2:	f7ff fffe 	bl	0 <pbuf_header>
  b6:	2800      	cmp	r0, #0
  b8:	d14d      	bne.n	156 <icmp_input+0x156>
D:\sunny\stm32\therme\Utilities\lwip-1.3.1\src\core\ipv4/icmp.c:175
        LWIP_ASSERT("icmp_input: restoring original p->payload failed\n", 0);
        goto memerr;
      }
      /* free the original p */
      pbuf_free(p);
  ba:	4620      	mov	r0, r4
  bc:	f7ff fffe 	bl	0 <pbuf_free>
  c0:	4654      	mov	r4, sl
  c2:	e006      	b.n	d2 <icmp_input+0xd2>
D:\sunny\stm32\therme\Utilities\lwip-1.3.1\src\core\ipv4/icmp.c:180
      /* we now have an identical copy of p that has room for link headers */
      p = r;
    } else {
      /* restore p->payload to point to icmp header */
      if (pbuf_header(p, -(s16_t)(PBUF_IP_HLEN + PBUF_LINK_HLEN))) {
  c4:	4620      	mov	r0, r4
  c6:	f06f 0121 	mvn.w	r1, #33	; 0x21
  ca:	f7ff fffe 	bl	0 <pbuf_header>
  ce:	2800      	cmp	r0, #0
  d0:	d141      	bne.n	156 <icmp_input+0x156>
D:\sunny\stm32\therme\Utilities\lwip-1.3.1\src\core\ipv4/icmp.c:190
#endif /* LWIP_ICMP_ECHO_CHECK_INPUT_PBUF_LEN */
    /* At this point, all checks are OK. */
    /* We generate an answer by switching the dest and src ip addresses,
     * setting the icmp type to ECHO_RESPONSE and updating the checksum. */
    iecho = (struct icmp_echo_hdr *)p->payload;
    ip_addr_copy(iphdr->src, *ip_current_dest_addr());
  d2:	782a      	ldrb	r2, [r5, #0]
D:\sunny\stm32\therme\Utilities\lwip-1.3.1\src\core\ipv4/icmp.c:189
    }
#endif /* LWIP_ICMP_ECHO_CHECK_INPUT_PBUF_LEN */
    /* At this point, all checks are OK. */
    /* We generate an answer by switching the dest and src ip addresses,
     * setting the icmp type to ECHO_RESPONSE and updating the checksum. */
    iecho = (struct icmp_echo_hdr *)p->payload;
  d4:	6863      	ldr	r3, [r4, #4]
D:\sunny\stm32\therme\Utilities\lwip-1.3.1\src\core\ipv4/icmp.c:190
    ip_addr_copy(iphdr->src, *ip_current_dest_addr());
  d6:	f889 200c 	strb.w	r2, [r9, #12]
  da:	786a      	ldrb	r2, [r5, #1]
  dc:	f889 200d 	strb.w	r2, [r9, #13]
  e0:	78aa      	ldrb	r2, [r5, #2]
  e2:	f889 200e 	strb.w	r2, [r9, #14]
  e6:	78ea      	ldrb	r2, [r5, #3]
  e8:	f889 200f 	strb.w	r2, [r9, #15]
D:\sunny\stm32\therme\Utilities\lwip-1.3.1\src\core\ipv4/icmp.c:191
    ip_addr_copy(iphdr->dest, *ip_current_src_addr());
  ec:	4a1e      	ldr	r2, [pc, #120]	; (168 <icmp_input+0x168>)
  ee:	7811      	ldrb	r1, [r2, #0]
  f0:	f889 1010 	strb.w	r1, [r9, #16]
  f4:	7851      	ldrb	r1, [r2, #1]
  f6:	f889 1011 	strb.w	r1, [r9, #17]
  fa:	7891      	ldrb	r1, [r2, #2]
  fc:	f889 1012 	strb.w	r1, [r9, #18]
 100:	78d2      	ldrb	r2, [r2, #3]
 102:	f889 2013 	strb.w	r2, [r9, #19]
D:\sunny\stm32\therme\Utilities\lwip-1.3.1\src\core\ipv4/icmp.c:192
    ICMPH_TYPE_SET(iecho, ICMP_ER);
 106:	2200      	movs	r2, #0
D:\sunny\stm32\therme\Utilities\lwip-1.3.1\src\core\ipv4/icmp.c:194
    /* adjust the checksum */
    if (iecho->chksum >= PP_HTONS(0xffffU - (ICMP_ECHO << 8))) {
 108:	78d9      	ldrb	r1, [r3, #3]
D:\sunny\stm32\therme\Utilities\lwip-1.3.1\src\core\ipv4/icmp.c:192
    /* We generate an answer by switching the dest and src ip addresses,
     * setting the icmp type to ECHO_RESPONSE and updating the checksum. */
    iecho = (struct icmp_echo_hdr *)p->payload;
    ip_addr_copy(iphdr->src, *ip_current_dest_addr());
    ip_addr_copy(iphdr->dest, *ip_current_src_addr());
    ICMPH_TYPE_SET(iecho, ICMP_ER);
 10a:	701a      	strb	r2, [r3, #0]
D:\sunny\stm32\therme\Utilities\lwip-1.3.1\src\core\ipv4/icmp.c:194
    /* adjust the checksum */
    if (iecho->chksum >= PP_HTONS(0xffffU - (ICMP_ECHO << 8))) {
 10c:	789a      	ldrb	r2, [r3, #2]
 10e:	ea42 2201 	orr.w	r2, r2, r1, lsl #8
 112:	f64f 71f6 	movw	r1, #65526	; 0xfff6
 116:	428a      	cmp	r2, r1
 118:	d901      	bls.n	11e <icmp_input+0x11e>
D:\sunny\stm32\therme\Utilities\lwip-1.3.1\src\core\ipv4/icmp.c:195
      iecho->chksum += PP_HTONS(ICMP_ECHO << 8) + 1;
 11a:	3209      	adds	r2, #9
 11c:	e000      	b.n	120 <icmp_input+0x120>
D:\sunny\stm32\therme\Utilities\lwip-1.3.1\src\core\ipv4/icmp.c:197
    } else {
      iecho->chksum += PP_HTONS(ICMP_ECHO << 8);
 11e:	3208      	adds	r2, #8
 120:	b292      	uxth	r2, r2
 122:	709a      	strb	r2, [r3, #2]
 124:	0a12      	lsrs	r2, r2, #8
 126:	70da      	strb	r2, [r3, #3]
D:\sunny\stm32\therme\Utilities\lwip-1.3.1\src\core\ipv4/icmp.c:201
    }

    /* Set the correct TTL and recalculate the header checksum. */
    IPH_TTL_SET(iphdr, ICMP_TTL);
 128:	25ff      	movs	r5, #255	; 0xff
D:\sunny\stm32\therme\Utilities\lwip-1.3.1\src\core\ipv4/icmp.c:202
    IPH_CHKSUM_SET(iphdr, 0);
 12a:	2300      	movs	r3, #0
D:\sunny\stm32\therme\Utilities\lwip-1.3.1\src\core\ipv4/icmp.c:201
    } else {
      iecho->chksum += PP_HTONS(ICMP_ECHO << 8);
    }

    /* Set the correct TTL and recalculate the header checksum. */
    IPH_TTL_SET(iphdr, ICMP_TTL);
 12c:	f889 5008 	strb.w	r5, [r9, #8]
D:\sunny\stm32\therme\Utilities\lwip-1.3.1\src\core\ipv4/icmp.c:202
    IPH_CHKSUM_SET(iphdr, 0);
 130:	f889 300a 	strb.w	r3, [r9, #10]
 134:	f889 300b 	strb.w	r3, [r9, #11]
D:\sunny\stm32\therme\Utilities\lwip-1.3.1\src\core\ipv4/icmp.c:213
    /* increase number of messages attempted to send */
    snmp_inc_icmpoutmsgs();
    /* increase number of echo replies attempted to send */
    snmp_inc_icmpoutechoreps();

    if(pbuf_header(p, hlen)) {
 138:	4620      	mov	r0, r4
 13a:	4631      	mov	r1, r6
 13c:	f7ff fffe 	bl	0 <pbuf_header>
 140:	4602      	mov	r2, r0
 142:	b940      	cbnz	r0, 156 <icmp_input+0x156>
D:\sunny\stm32\therme\Utilities\lwip-1.3.1\src\core\ipv4/icmp.c:218
      LWIP_ASSERT("Can't move over header in packet", 0);
    } else {
      err_t ret;
      /* send an ICMP packet, src addr is the dest addr of the curren packet */
      ret = ip_output_if(p, ip_current_dest_addr(), IP_HDRINCL,
 144:	2301      	movs	r3, #1
 146:	9000      	str	r0, [sp, #0]
 148:	9301      	str	r3, [sp, #4]
 14a:	4620      	mov	r0, r4
 14c:	4905      	ldr	r1, [pc, #20]	; (164 <icmp_input+0x164>)
 14e:	462b      	mov	r3, r5
 150:	9702      	str	r7, [sp, #8]
 152:	f7ff fffe 	bl	0 <ip_output_if>
D:\sunny\stm32\therme\Utilities\lwip-1.3.1\src\core\ipv4/icmp.c:240
  ICMP_STATS_INC(icmp.lenerr);
  snmp_inc_icmpinerrors();
  return;
#if LWIP_ICMP_ECHO_CHECK_INPUT_PBUF_LEN
memerr:
  pbuf_free(p);
 156:	4620      	mov	r0, r4
D:\sunny\stm32\therme\Utilities\lwip-1.3.1\src\core\ipv4/icmp.c:245
  ICMP_STATS_INC(icmp.err);
  snmp_inc_icmpinerrors();
  return;
#endif /* LWIP_ICMP_ECHO_CHECK_INPUT_PBUF_LEN */
}
 158:	b004      	add	sp, #16
 15a:	e8bd 47f0 	ldmia.w	sp!, {r4, r5, r6, r7, r8, r9, sl, lr}
D:\sunny\stm32\therme\Utilities\lwip-1.3.1\src\core\ipv4/icmp.c:240
  ICMP_STATS_INC(icmp.lenerr);
  snmp_inc_icmpinerrors();
  return;
#if LWIP_ICMP_ECHO_CHECK_INPUT_PBUF_LEN
memerr:
  pbuf_free(p);
 15e:	f7ff bffe 	b.w	0 <pbuf_free>
 162:	bf00      	nop
	...

Disassembly of section .text.icmp_dest_unreach:

00000000 <icmp_dest_unreach>:
icmp_dest_unreach():
D:\sunny\stm32\therme\Utilities\lwip-1.3.1\src\core\ipv4/icmp.c:258
 *          p->payload pointing to the IP header
 * @param t type of the 'unreachable' packet
 */
void
icmp_dest_unreach(struct pbuf *p, enum icmp_dur_type t)
{
   0:	460a      	mov	r2, r1
D:\sunny\stm32\therme\Utilities\lwip-1.3.1\src\core\ipv4/icmp.c:259
  icmp_send_response(p, ICMP_DUR, t);
   2:	3004      	adds	r0, #4
   4:	2103      	movs	r1, #3
   6:	f7ff bffe 	b.w	0 <icmp_dest_unreach>

Disassembly of section .text.icmp_time_exceeded:

00000000 <icmp_time_exceeded>:
icmp_time_exceeded():
D:\sunny\stm32\therme\Utilities\lwip-1.3.1\src\core\ipv4/icmp.c:272
 *          p->payload pointing to the IP header
 * @param t type of the 'time exceeded' packet
 */
void
icmp_time_exceeded(struct pbuf *p, enum icmp_te_type t)
{
   0:	460a      	mov	r2, r1
D:\sunny\stm32\therme\Utilities\lwip-1.3.1\src\core\ipv4/icmp.c:273
  icmp_send_response(p, ICMP_TE, t);
   2:	3004      	adds	r0, #4
   4:	210b      	movs	r1, #11
   6:	f7ff bffe 	b.w	0 <icmp_time_exceeded>
