
D:\sunny\stm32\therme\Project\RIDE\STM3210C-EVAL\main.o:     file format elf32-littlearm
D:\sunny\stm32\therme\Project\RIDE\STM3210C-EVAL\main.o


Disassembly of section .text.ee_recv:

00000000 <ee_recv>:
ee_recv():
D:\sunny\stm32\therme\Project\src/main.c:544
  	
  mem_free(hs);
}

err_t ee_recv(void *arg, struct tcp_pcb *pcb, struct pbuf *p, err_t err)
{
   0:	b538      	push	{r3, r4, r5, lr}
D:\sunny\stm32\therme\Project\src/main.c:545
		tcp_abort (pcb);
   2:	4608      	mov	r0, r1
D:\sunny\stm32\therme\Project\src/main.c:544
  	
  mem_free(hs);
}

err_t ee_recv(void *arg, struct tcp_pcb *pcb, struct pbuf *p, err_t err)
{
   4:	460c      	mov	r4, r1
   6:	4615      	mov	r5, r2
D:\sunny\stm32\therme\Project\src/main.c:545
		tcp_abort (pcb);
   8:	f7ff fffe 	bl	0 <tcp_abort>
D:\sunny\stm32\therme\Project\src/main.c:547

	tcp_recved(pcb, p->tot_len);
   c:	4620      	mov	r0, r4
   e:	8929      	ldrh	r1, [r5, #8]
  10:	f7ff fffe 	bl	0 <tcp_recved>
D:\sunny\stm32\therme\Project\src/main.c:549
	
			  tcp_close(pcb);
  14:	4620      	mov	r0, r4
  16:	f7ff fffe 	bl	0 <tcp_close>
D:\sunny\stm32\therme\Project\src/main.c:551
			  
			mem_free(pcb);
  1a:	4620      	mov	r0, r4
  1c:	f7ff fffe 	bl	0 <mem_free>
D:\sunny\stm32\therme\Project\src/main.c:555
	

	
}	
  20:	bd38      	pop	{r3, r4, r5, pc}

Disassembly of section .text.ee:

00000000 <ee>:
ee():
D:\sunny\stm32\therme\Project\src/main.c:557
err_t ee(void *arg, struct tcp_pcb *pcb, err_t err)
{
   0:	b5f8      	push	{r3, r4, r5, r6, r7, lr}
D:\sunny\stm32\therme\Project\src/main.c:564
	char *Page="test.php?v=123456789012345678901234567890123456789012345678901234567890";
	struct http_state *hs;

  /* Allocate memory for the structure that holds the state of the
   connection. */
  hs = mem_malloc(sizeof(struct http_state));
   2:	2008      	movs	r0, #8
D:\sunny\stm32\therme\Project\src/main.c:557
	

	
}	
err_t ee(void *arg, struct tcp_pcb *pcb, err_t err)
{
   4:	460d      	mov	r5, r1
D:\sunny\stm32\therme\Project\src/main.c:564
	char *Page="test.php?v=123456789012345678901234567890123456789012345678901234567890";
	struct http_state *hs;

  /* Allocate memory for the structure that holds the state of the
   connection. */
  hs = mem_malloc(sizeof(struct http_state));
   6:	f7ff fffe 	bl	0 <mem_malloc>
D:\sunny\stm32\therme\Project\src/main.c:566

  if (hs == NULL)
   a:	4604      	mov	r4, r0
   c:	b1f8      	cbz	r0, 4e <ee+0x4e>
D:\sunny\stm32\therme\Project\src/main.c:573
      return ERR_MEM;
    }

  /* Initialize the structure. */
  hs->file = NULL;
  hs->left = 0;
   e:	2600      	movs	r6, #0
  10:	6046      	str	r6, [r0, #4]
D:\sunny\stm32\therme\Project\src/main.c:579

  /* Tell TCP that this is the structure we wish to be passed for our
   callbacks. */

	
	 hs->file = malloc(19 + strlen(Page));
  12:	205a      	movs	r0, #90	; 0x5a
  14:	f7ff fffe 	bl	0 <malloc>
D:\sunny\stm32\therme\Project\src/main.c:580
     sprintf(hs->file,"GET /%s HTTP/1.0\r\n\r\n", Page);
  18:	490e      	ldr	r1, [pc, #56]	; (54 <ee+0x54>)
  1a:	4a0f      	ldr	r2, [pc, #60]	; (58 <ee+0x58>)
D:\sunny\stm32\therme\Project\src/main.c:579

  /* Tell TCP that this is the structure we wish to be passed for our
   callbacks. */

	
	 hs->file = malloc(19 + strlen(Page));
  1c:	6020      	str	r0, [r4, #0]
D:\sunny\stm32\therme\Project\src/main.c:580
     sprintf(hs->file,"GET /%s HTTP/1.0\r\n\r\n", Page);
  1e:	f7ff fffe 	bl	0 <sprintf>
D:\sunny\stm32\therme\Project\src/main.c:581
	hs->left = strlen(hs->file );
  22:	6827      	ldr	r7, [r4, #0]
  24:	4638      	mov	r0, r7
  26:	f7ff fffe 	bl	0 <strlen>
  2a:	4602      	mov	r2, r0
D:\sunny\stm32\therme\Project\src/main.c:584
	// tcp_recv(pcb, ee_recv);
	  
    tcp_write(pcb, hs->file, hs->left, 1);
  2c:	4639      	mov	r1, r7
  2e:	b292      	uxth	r2, r2
  30:	2301      	movs	r3, #1
D:\sunny\stm32\therme\Project\src/main.c:581
   callbacks. */

	
	 hs->file = malloc(19 + strlen(Page));
     sprintf(hs->file,"GET /%s HTTP/1.0\r\n\r\n", Page);
	hs->left = strlen(hs->file );
  32:	6060      	str	r0, [r4, #4]
D:\sunny\stm32\therme\Project\src/main.c:584
	// tcp_recv(pcb, ee_recv);
	  
    tcp_write(pcb, hs->file, hs->left, 1);
  34:	4628      	mov	r0, r5
  36:	f7ff fffe 	bl	0 <tcp_write>
D:\sunny\stm32\therme\Project\src/main.c:585
    tcp_output(pcb);
  3a:	4628      	mov	r0, r5
  3c:	f7ff fffe 	bl	0 <tcp_output>
D:\sunny\stm32\therme\Project\src/main.c:586
	tcp_close(pcb);
  40:	4628      	mov	r0, r5
  42:	f7ff fffe 	bl	0 <tcp_close>
D:\sunny\stm32\therme\Project\src/main.c:587
mem_free(hs);
  46:	4620      	mov	r0, r4
  48:	f7ff fffe 	bl	0 <mem_free>
D:\sunny\stm32\therme\Project\src/main.c:588
			  return ERR_OK;
  4c:	e000      	b.n	50 <ee+0x50>
D:\sunny\stm32\therme\Project\src/main.c:568
   connection. */
  hs = mem_malloc(sizeof(struct http_state));

  if (hs == NULL)
    {
      return ERR_MEM;
  4e:	26ff      	movs	r6, #255	; 0xff
D:\sunny\stm32\therme\Project\src/main.c:590
    tcp_output(pcb);
	tcp_close(pcb);
mem_free(hs);
			  return ERR_OK;

}
  50:	b270      	sxtb	r0, r6
  52:	bdf8      	pop	{r3, r4, r5, r6, r7, pc}
  54:	00000000 	.word	0x00000000
  58:	00000015 	.word	0x00000015

Disassembly of section .text.client_write_s:

00000000 <client_write_s>:
client_write_s():
D:\sunny\stm32\therme\Project\src/main.c:593

void client_write_s(void)
{
   0:	b573      	push	{r0, r1, r4, r5, r6, lr}
D:\sunny\stm32\therme\Project\src/main.c:598
	struct tcp_pcb *pcb;
	struct ip_addr server;
		char *Page="test.php?v=123456789012345678901234567890123456789012345678901234567890";
	struct http_state *hs;
hs = mem_malloc(sizeof(struct http_state));
   2:	2008      	movs	r0, #8
   4:	f7ff fffe 	bl	0 <mem_malloc>
D:\sunny\stm32\therme\Project\src/main.c:603


  /* Initialize the structure. */
  hs->file = NULL;
  hs->left = 0;
   8:	2600      	movs	r6, #0
D:\sunny\stm32\therme\Project\src/main.c:598
{
	struct tcp_pcb *pcb;
	struct ip_addr server;
		char *Page="test.php?v=123456789012345678901234567890123456789012345678901234567890";
	struct http_state *hs;
hs = mem_malloc(sizeof(struct http_state));
   a:	4604      	mov	r4, r0
D:\sunny\stm32\therme\Project\src/main.c:603


  /* Initialize the structure. */
  hs->file = NULL;
  hs->left = 0;
   c:	6046      	str	r6, [r0, #4]
D:\sunny\stm32\therme\Project\src/main.c:609

  /* Tell TCP that this is the structure we wish to be passed for our
   callbacks. */

	
	 hs->file = malloc(19 + strlen(Page));
   e:	205a      	movs	r0, #90	; 0x5a
  10:	f7ff fffe 	bl	0 <malloc>
D:\sunny\stm32\therme\Project\src/main.c:610
     sprintf(hs->file,"GET /%s HTTP/1.0\r\n\r\n", Page);
  14:	4912      	ldr	r1, [pc, #72]	; (60 <client_write_s+0x60>)
  16:	4a13      	ldr	r2, [pc, #76]	; (64 <client_write_s+0x64>)
D:\sunny\stm32\therme\Project\src/main.c:609

  /* Tell TCP that this is the structure we wish to be passed for our
   callbacks. */

	
	 hs->file = malloc(19 + strlen(Page));
  18:	6020      	str	r0, [r4, #0]
D:\sunny\stm32\therme\Project\src/main.c:610
     sprintf(hs->file,"GET /%s HTTP/1.0\r\n\r\n", Page);
  1a:	f7ff fffe 	bl	0 <sprintf>
D:\sunny\stm32\therme\Project\src/main.c:611
	hs->left = strlen(hs->file );
  1e:	6820      	ldr	r0, [r4, #0]
  20:	f7ff fffe 	bl	0 <strlen>
D:\sunny\stm32\therme\Project\src/main.c:615
	// tcp_recv(pcb, ee_recv);


  IP4_ADDR(&server, 192,168,1,2);
  24:	4b10      	ldr	r3, [pc, #64]	; (68 <client_write_s+0x68>)
D:\sunny\stm32\therme\Project\src/main.c:611
   callbacks. */

	
	 hs->file = malloc(19 + strlen(Page));
     sprintf(hs->file,"GET /%s HTTP/1.0\r\n\r\n", Page);
	hs->left = strlen(hs->file );
  26:	6060      	str	r0, [r4, #4]
D:\sunny\stm32\therme\Project\src/main.c:615
	// tcp_recv(pcb, ee_recv);


  IP4_ADDR(&server, 192,168,1,2);
  28:	9301      	str	r3, [sp, #4]
D:\sunny\stm32\therme\Project\src/main.c:617

  pcb = tcp_new(); // create tcp pcb
  2a:	f7ff fffe 	bl	0 <tcp_new>
D:\sunny\stm32\therme\Project\src/main.c:619
  
  	if(tcp_bind(pcb, IP_ADDR_ANY, 0) == ERR_OK)
  2e:	490f      	ldr	r1, [pc, #60]	; (6c <client_write_s+0x6c>)
  30:	4632      	mov	r2, r6
D:\sunny\stm32\therme\Project\src/main.c:617
	// tcp_recv(pcb, ee_recv);


  IP4_ADDR(&server, 192,168,1,2);

  pcb = tcp_new(); // create tcp pcb
  32:	4605      	mov	r5, r0
D:\sunny\stm32\therme\Project\src/main.c:619
  
  	if(tcp_bind(pcb, IP_ADDR_ANY, 0) == ERR_OK)
  34:	f7ff fffe 	bl	0 <tcp_bind>
  38:	4603      	mov	r3, r0
  3a:	b950      	cbnz	r0, 52 <client_write_s+0x52>
D:\sunny\stm32\therme\Project\src/main.c:621
	{
		tcp_connect(pcb, &server, 80, NULL);
  3c:	a901      	add	r1, sp, #4
  3e:	2250      	movs	r2, #80	; 0x50
  40:	4628      	mov	r0, r5
  42:	f7ff fffe 	bl	0 <tcp_connect>
D:\sunny\stm32\therme\Project\src/main.c:622
		tcp_write(pcb, hs->file, hs->left, 1);
  46:	4628      	mov	r0, r5
  48:	6821      	ldr	r1, [r4, #0]
  4a:	88a2      	ldrh	r2, [r4, #4]
  4c:	2301      	movs	r3, #1
  4e:	f7ff fffe 	bl	0 <tcp_write>
D:\sunny\stm32\therme\Project\src/main.c:626
		
		
	}
	tcp_close(pcb);
  52:	4628      	mov	r0, r5
  54:	f7ff fffe 	bl	0 <tcp_close>
D:\sunny\stm32\therme\Project\src/main.c:628
	
mem_free(hs);
  58:	4620      	mov	r0, r4
  5a:	f7ff fffe 	bl	0 <mem_free>
D:\sunny\stm32\therme\Project\src/main.c:630

}
  5e:	bd7c      	pop	{r2, r3, r4, r5, r6, pc}
  60:	00000000 	.word	0x00000000
  64:	00000015 	.word	0x00000015
  68:	0201a8c0 	.word	0x0201a8c0
  6c:	00000000 	.word	0x00000000

Disassembly of section .text.int_mcp:

00000000 <int_mcp>:
int_mcp():
D:\sunny\stm32\therme\Project\src/main.c:635

void
int_mcp(unsigned char add)
{
  write_to_MCP(add, IPOL0, 0x00, 0x00); // NonInvert all input polarities if active low.
   0:	2200      	movs	r2, #0
D:\sunny\stm32\therme\Project\src/main.c:634

}

void
int_mcp(unsigned char add)
{
   2:	b510      	push	{r4, lr}
D:\sunny\stm32\therme\Project\src/main.c:635
  write_to_MCP(add, IPOL0, 0x00, 0x00); // NonInvert all input polarities if active low.
   4:	2104      	movs	r1, #4
   6:	4613      	mov	r3, r2
D:\sunny\stm32\therme\Project\src/main.c:634

}

void
int_mcp(unsigned char add)
{
   8:	4604      	mov	r4, r0
D:\sunny\stm32\therme\Project\src/main.c:635
  write_to_MCP(add, IPOL0, 0x00, 0x00); // NonInvert all input polarities if active low.
   a:	f7ff fffe 	bl	0 <write_to_MCP>
D:\sunny\stm32\therme\Project\src/main.c:636
  write_to_MCP(add, IPOL1, 0x00, 0x00); // NonInvert all input polarities if active low.
   e:	2200      	movs	r2, #0
  10:	4620      	mov	r0, r4
  12:	2105      	movs	r1, #5
  14:	4613      	mov	r3, r2
  16:	f7ff fffe 	bl	0 <write_to_MCP>
D:\sunny\stm32\therme\Project\src/main.c:637
  write_to_MCP(add, IOCON0, 0x01, 0x01); // IARES(1) to max. activity detection time.
  1a:	2201      	movs	r2, #1
  1c:	4620      	mov	r0, r4
  1e:	210a      	movs	r1, #10
  20:	4613      	mov	r3, r2
  22:	f7ff fffe 	bl	0 <write_to_MCP>
D:\sunny\stm32\therme\Project\src/main.c:638
  write_to_MCP(add, IOCON1, 0x01, 0x01); // IARES(1) to max. activity detection time.
  26:	2201      	movs	r2, #1
  28:	4620      	mov	r0, r4
  2a:	210b      	movs	r1, #11
  2c:	4613      	mov	r3, r2
  2e:	f7ff fffe 	bl	0 <write_to_MCP>
D:\sunny\stm32\therme\Project\src/main.c:639
  write_to_MCP(add, OLAT0, 0xFF, 0xFF); // Update o/p latch that controls the output.
  32:	22ff      	movs	r2, #255	; 0xff
  34:	4620      	mov	r0, r4
  36:	2102      	movs	r1, #2
  38:	4613      	mov	r3, r2
  3a:	f7ff fffe 	bl	0 <write_to_MCP>
D:\sunny\stm32\therme\Project\src/main.c:640
  write_to_MCP(add, OLAT1, 0xFF, 0xFF); // Update o/p latch that controls the output.
  3e:	22ff      	movs	r2, #255	; 0xff
  40:	4620      	mov	r0, r4
  42:	2103      	movs	r1, #3
  44:	4613      	mov	r3, r2
D:\sunny\stm32\therme\Project\src/main.c:642

}
  46:	e8bd 4010 	ldmia.w	sp!, {r4, lr}
D:\sunny\stm32\therme\Project\src/main.c:640
  write_to_MCP(add, IPOL0, 0x00, 0x00); // NonInvert all input polarities if active low.
  write_to_MCP(add, IPOL1, 0x00, 0x00); // NonInvert all input polarities if active low.
  write_to_MCP(add, IOCON0, 0x01, 0x01); // IARES(1) to max. activity detection time.
  write_to_MCP(add, IOCON1, 0x01, 0x01); // IARES(1) to max. activity detection time.
  write_to_MCP(add, OLAT0, 0xFF, 0xFF); // Update o/p latch that controls the output.
  write_to_MCP(add, OLAT1, 0xFF, 0xFF); // Update o/p latch that controls the output.
  4a:	f7ff bffe 	b.w	0 <write_to_MCP>

Disassembly of section .text.set_ebuff:

00000000 <set_ebuff>:
set_ebuff():
D:\sunny\stm32\therme\Project\src/main.c:646

}

void
set_ebuff(char* eb)
{
   0:	b537      	push	{r0, r1, r2, r4, r5, lr}
   2:	4605      	mov	r5, r0
D:\sunny\stm32\therme\Project\src/main.c:656
  ai = 0;

  for (i = 0; i < 8; i++)
    {
      for (iss = 0; iss < 8; iss++)
        ebb[iss] = 0;
   4:	2400      	movs	r4, #0
   6:	e011      	b.n	2c <set_ebuff+0x2c>
D:\sunny\stm32\therme\Project\src/main.c:659

      for (iss = 0; iss < 8; iss++)
        ebb[iss] = eb[iss + (ai)];
   8:	5cab      	ldrb	r3, [r5, r2]
   a:	f80d 3002 	strb.w	r3, [sp, r2]
   e:	3201      	adds	r2, #1
D:\sunny\stm32\therme\Project\src/main.c:658
  for (i = 0; i < 8; i++)
    {
      for (iss = 0; iss < 8; iss++)
        ebb[iss] = 0;

      for (iss = 0; iss < 8; iss++)
  10:	2a08      	cmp	r2, #8
  12:	d1f9      	bne.n	8 <set_ebuff+0x8>
D:\sunny\stm32\therme\Project\src/main.c:661
        ebb[iss] = eb[iss + (ai)];

      I2C_EE_BufferWrite(ebb, issa, 8);
  14:	0123      	lsls	r3, r4, #4
  16:	f64f 71f0 	movw	r1, #65520	; 0xfff0
  1a:	4668      	mov	r0, sp
  1c:	ea03 0101 	and.w	r1, r3, r1
  20:	3401      	adds	r4, #1
  22:	f7ff fffe 	bl	0 <I2C_EE_BufferWrite>
  26:	3508      	adds	r5, #8
D:\sunny\stm32\therme\Project\src/main.c:653
  char ebb[8];
  unsigned char iss, issa, ai, i;
  issa = 0;
  ai = 0;

  for (i = 0; i < 8; i++)
  28:	2c08      	cmp	r4, #8
  2a:	d011      	beq.n	50 <set_ebuff+0x50>
D:\sunny\stm32\therme\Project\src/main.c:656
    {
      for (iss = 0; iss < 8; iss++)
        ebb[iss] = 0;
  2c:	2200      	movs	r2, #0
  2e:	f88d 2000 	strb.w	r2, [sp]
  32:	f88d 2001 	strb.w	r2, [sp, #1]
  36:	f88d 2002 	strb.w	r2, [sp, #2]
  3a:	f88d 2003 	strb.w	r2, [sp, #3]
  3e:	f88d 2004 	strb.w	r2, [sp, #4]
  42:	f88d 2005 	strb.w	r2, [sp, #5]
  46:	f88d 2006 	strb.w	r2, [sp, #6]
  4a:	f88d 2007 	strb.w	r2, [sp, #7]
  4e:	e7db      	b.n	8 <set_ebuff+0x8>
D:\sunny\stm32\therme\Project\src/main.c:667
      issa += 0x10;
      ai += 8;

    }

}
  50:	bd3e      	pop	{r1, r2, r3, r4, r5, pc}

Disassembly of section .text.read_ebuff:

00000000 <read_ebuff>:
read_ebuff():
D:\sunny\stm32\therme\Project\src/main.c:670
void
read_ebuff(char* eb)
{
   0:	b573      	push	{r0, r1, r4, r5, r6, lr}
   2:	4606      	mov	r6, r0
D:\sunny\stm32\therme\Project\src/main.c:682
  for (i = 0; i < 8; i++)
    {
      for (iss = 0; iss < 8; iss++)
        ebb[iss] = 0;

      I2C_EE_BufferRead(ebb, issa, 8);
   4:	2500      	movs	r5, #0
   6:	e009      	b.n	1c <read_ebuff+0x1c>
D:\sunny\stm32\therme\Project\src/main.c:685

      for (iss = 0; iss < 8; iss++)
        *(eb + (iss + ai)) = ebb[iss];
   8:	f81d 3004 	ldrb.w	r3, [sp, r4]
   c:	5533      	strb	r3, [r6, r4]
   e:	3401      	adds	r4, #1
D:\sunny\stm32\therme\Project\src/main.c:684
      for (iss = 0; iss < 8; iss++)
        ebb[iss] = 0;

      I2C_EE_BufferRead(ebb, issa, 8);

      for (iss = 0; iss < 8; iss++)
  10:	2c08      	cmp	r4, #8
  12:	d1f9      	bne.n	8 <read_ebuff+0x8>
  14:	3501      	adds	r5, #1
  16:	3608      	adds	r6, #8
D:\sunny\stm32\therme\Project\src/main.c:677
  char ebba[48];
  unsigned char iss, issa, ai, i;

  issa = 0;
  ai = 0;
  for (i = 0; i < 8; i++)
  18:	2d08      	cmp	r5, #8
  1a:	d01a      	beq.n	52 <read_ebuff+0x52>
D:\sunny\stm32\therme\Project\src/main.c:682
    {
      for (iss = 0; iss < 8; iss++)
        ebb[iss] = 0;

      I2C_EE_BufferRead(ebb, issa, 8);
  1c:	012b      	lsls	r3, r5, #4
  1e:	f64f 71f0 	movw	r1, #65520	; 0xfff0
D:\sunny\stm32\therme\Project\src/main.c:680
  issa = 0;
  ai = 0;
  for (i = 0; i < 8; i++)
    {
      for (iss = 0; iss < 8; iss++)
        ebb[iss] = 0;
  22:	2400      	movs	r4, #0
D:\sunny\stm32\therme\Project\src/main.c:682

      I2C_EE_BufferRead(ebb, issa, 8);
  24:	4668      	mov	r0, sp
  26:	ea03 0101 	and.w	r1, r3, r1
  2a:	2208      	movs	r2, #8
D:\sunny\stm32\therme\Project\src/main.c:680
  issa = 0;
  ai = 0;
  for (i = 0; i < 8; i++)
    {
      for (iss = 0; iss < 8; iss++)
        ebb[iss] = 0;
  2c:	f88d 4000 	strb.w	r4, [sp]
  30:	f88d 4001 	strb.w	r4, [sp, #1]
  34:	f88d 4002 	strb.w	r4, [sp, #2]
  38:	f88d 4003 	strb.w	r4, [sp, #3]
  3c:	f88d 4004 	strb.w	r4, [sp, #4]
  40:	f88d 4005 	strb.w	r4, [sp, #5]
  44:	f88d 4006 	strb.w	r4, [sp, #6]
  48:	f88d 4007 	strb.w	r4, [sp, #7]
D:\sunny\stm32\therme\Project\src/main.c:682

      I2C_EE_BufferRead(ebb, issa, 8);
  4c:	f7ff fffe 	bl	0 <I2C_EE_BufferRead>
  50:	e7da      	b.n	8 <read_ebuff+0x8>
D:\sunny\stm32\therme\Project\src/main.c:691

      ai += 8;
      issa += 0x10;
    }

}
  52:	bd7c      	pop	{r2, r3, r4, r5, r6, pc}

Disassembly of section .text.tempc_read:

00000000 <tempc_read>:
tempc_read():
D:\sunny\stm32\therme\Project\src/main.c:696

void
tempc_read(char* t1, char* t2)
{
  *t1 = *tempc1;
   0:	4b03      	ldr	r3, [pc, #12]	; (10 <tempc_read+0x10>)
   2:	781b      	ldrb	r3, [r3, #0]
   4:	7003      	strb	r3, [r0, #0]
D:\sunny\stm32\therme\Project\src/main.c:697
  *t2 = *tempc2;
   6:	4b03      	ldr	r3, [pc, #12]	; (14 <tempc_read+0x14>)
   8:	781b      	ldrb	r3, [r3, #0]
   a:	700b      	strb	r3, [r1, #0]
D:\sunny\stm32\therme\Project\src/main.c:698
}
   c:	4770      	bx	lr
   e:	bf00      	nop
	...

Disassembly of section .text.leds_set:

00000000 <leds_set>:
leds_set():
D:\sunny\stm32\therme\Project\src/main.c:702
void
leds_set(unsigned char add, unsigned char val)
{
  leds[add] = val;
   0:	4b01      	ldr	r3, [pc, #4]	; (8 <leds_set+0x8>)
   2:	5419      	strb	r1, [r3, r0]
D:\sunny\stm32\therme\Project\src/main.c:704

}
   4:	4770      	bx	lr
   6:	bf00      	nop
   8:	00000000 	.word	0x00000000

Disassembly of section .text.delay_read:

00000000 <delay_read>:
delay_read():
D:\sunny\stm32\therme\Project\src/main.c:707
void
delay_read(char* d_f, char* d_h, char* d_m, char* d_s)
{
   0:	b510      	push	{r4, lr}
D:\sunny\stm32\therme\Project\src/main.c:710
  //while (*d_f != '\0')
//	{
  *d_f = *delay_fin;
   2:	4c08      	ldr	r4, [pc, #32]	; (24 <delay_read+0x24>)
   4:	6824      	ldr	r4, [r4, #0]
   6:	7824      	ldrb	r4, [r4, #0]
   8:	7004      	strb	r4, [r0, #0]
D:\sunny\stm32\therme\Project\src/main.c:711
  *d_h = *delh;
   a:	4807      	ldr	r0, [pc, #28]	; (28 <delay_read+0x28>)
   c:	6800      	ldr	r0, [r0, #0]
   e:	7800      	ldrb	r0, [r0, #0]
  10:	7008      	strb	r0, [r1, #0]
D:\sunny\stm32\therme\Project\src/main.c:712
  *d_m = *delm;
  12:	4906      	ldr	r1, [pc, #24]	; (2c <delay_read+0x2c>)
  14:	6809      	ldr	r1, [r1, #0]
  16:	7809      	ldrb	r1, [r1, #0]
  18:	7011      	strb	r1, [r2, #0]
D:\sunny\stm32\therme\Project\src/main.c:713
  *d_s = *dels;
  1a:	4a05      	ldr	r2, [pc, #20]	; (30 <delay_read+0x30>)
  1c:	6812      	ldr	r2, [r2, #0]
  1e:	7812      	ldrb	r2, [r2, #0]
  20:	701a      	strb	r2, [r3, #0]
D:\sunny\stm32\therme\Project\src/main.c:716
  //d_f++;d_h++;d_m++;d_s++;delay_fin++;delh++;delm++;dels++;
  //}
}
  22:	bd10      	pop	{r4, pc}
	...

Disassembly of section .text.set_start:

00000000 <set_start>:
set_start():
D:\sunny\stm32\therme\Project\src/main.c:720
void
set_start(unsigned char s)
{
  start = s;
   0:	4b01      	ldr	r3, [pc, #4]	; (8 <set_start+0x8>)
   2:	7018      	strb	r0, [r3, #0]
D:\sunny\stm32\therme\Project\src/main.c:721
}
   4:	4770      	bx	lr
   6:	bf00      	nop
   8:	00000000 	.word	0x00000000

Disassembly of section .text.chk_start:

00000000 <chk_start>:
chk_start():
D:\sunny\stm32\therme\Project\src/main.c:725
unsigned char
chk_start(void)
{
  return start;
   0:	4b01      	ldr	r3, [pc, #4]	; (8 <chk_start+0x8>)
   2:	7818      	ldrb	r0, [r3, #0]
D:\sunny\stm32\therme\Project\src/main.c:726
}
   4:	4770      	bx	lr
   6:	bf00      	nop
   8:	00000000 	.word	0x00000000

Disassembly of section .text.set_sdoor:

00000000 <set_sdoor>:
set_sdoor():
D:\sunny\stm32\therme\Project\src/main.c:731

void
set_sdoor(unsigned char sd)
{
  sdoor = sd;
   0:	4b01      	ldr	r3, [pc, #4]	; (8 <set_sdoor+0x8>)
   2:	7018      	strb	r0, [r3, #0]
D:\sunny\stm32\therme\Project\src/main.c:732
}
   4:	4770      	bx	lr
   6:	bf00      	nop
   8:	00000000 	.word	0x00000000

Disassembly of section .text.chk_sdoor:

00000000 <chk_sdoor>:
chk_sdoor():
D:\sunny\stm32\therme\Project\src/main.c:737
unsigned char
chk_sdoor(void)
{
  return sdoor;
}
   0:	4b01      	ldr	r3, [pc, #4]	; (8 <chk_sdoor+0x8>)
   2:	7818      	ldrb	r0, [r3, #0]
   4:	4770      	bx	lr
   6:	bf00      	nop
   8:	00000000 	.word	0x00000000

Disassembly of section .text.setmodes:

00000000 <setmodes>:
setmodes():
D:\sunny\stm32\therme\Project\src/main.c:742

void
setmodes(unsigned char m)
{
  modes = m;
   0:	4b01      	ldr	r3, [pc, #4]	; (8 <setmodes+0x8>)
   2:	7018      	strb	r0, [r3, #0]
D:\sunny\stm32\therme\Project\src/main.c:743
}
   4:	4770      	bx	lr
   6:	bf00      	nop
   8:	00000000 	.word	0x00000000

Disassembly of section .text.chk_modes:

00000000 <chk_modes>:
chk_modes():
D:\sunny\stm32\therme\Project\src/main.c:748
unsigned char
chk_modes(void)
{
  return modes;
}
   0:	4b01      	ldr	r3, [pc, #4]	; (8 <chk_modes+0x8>)
   2:	7818      	ldrb	r0, [r3, #0]
   4:	4770      	bx	lr
   6:	bf00      	nop
   8:	00000000 	.word	0x00000000

Disassembly of section .text.i2c_rr:

00000000 <i2c_rr>:
i2c_rr():
D:\sunny\stm32\therme\Project\src/main.c:808
   ebuff[i++] =  0;	// 38
   ebuff[i++] =  0;	// 39
   */

//set_ebuff(ebuff);
  read_ebuff(ebuff);
   0:	4801      	ldr	r0, [pc, #4]	; (8 <i2c_rr+0x8>)
   2:	f7ff bffe 	b.w	0 <i2c_rr>
   6:	bf00      	nop
   8:	00000000 	.word	0x00000000

Disassembly of section .text.GetADC1Channel:

00000000 <GetADC1Channel>:
GetADC1Channel():
D:\sunny\stm32\therme\Project\src/main.c:829

}

void
GetADC1Channel(unsigned char chanel)
{
   0:	4601      	mov	r1, r0
   2:	b508      	push	{r3, lr}
D:\sunny\stm32\therme\Project\src/main.c:830
  ADC_RegularChannelConfig(ADC1, chanel, 1, ADC_SampleTime_55Cycles5); // Configure channel
   4:	4807      	ldr	r0, [pc, #28]	; (24 <GetADC1Channel+0x24>)
   6:	2201      	movs	r2, #1
   8:	2305      	movs	r3, #5
   a:	f7ff fffe 	bl	0 <ADC_RegularChannelConfig>
D:\sunny\stm32\therme\Project\src/main.c:831
  ADC_SoftwareStartConvCmd(ADC1, ENABLE); // Start the conversion
   e:	4805      	ldr	r0, [pc, #20]	; (24 <GetADC1Channel+0x24>)
  10:	2101      	movs	r1, #1
  12:	f7ff fffe 	bl	0 <ADC_SoftwareStartConvCmd>
D:\sunny\stm32\therme\Project\src/main.c:832
  while (ADC_GetFlagStatus(ADC1, ADC_FLAG_EOC) == RESET)
  16:	4803      	ldr	r0, [pc, #12]	; (24 <GetADC1Channel+0x24>)
  18:	2102      	movs	r1, #2
  1a:	f7ff fffe 	bl	0 <ADC_GetFlagStatus>
  1e:	2800      	cmp	r0, #0
  20:	d0f9      	beq.n	16 <GetADC1Channel+0x16>
D:\sunny\stm32\therme\Project\src/main.c:835
    ; // Wait until conversion completion
//   return ADC_GetConversionValue(ADC1);// Get the conversion value
}
  22:	bd08      	pop	{r3, pc}
  24:	40012400 	.word	0x40012400

Disassembly of section .text.check_temp:

00000000 <check_temp>:
check_temp():
D:\sunny\stm32\therme\Project\src/main.c:838
void
check_temp()
{
   0:	e92d 4ff0 	stmdb	sp!, {r4, r5, r6, r7, r8, r9, sl, fp, lr}
D:\sunny\stm32\therme\Project\src/main.c:847
  int cal;
  unsigned int ADCVal = 0;

  uint32_t adcs1, adcs2;
  adcs1 = 0;
  adcs2 = 0;
   4:	2500      	movs	r5, #0
D:\sunny\stm32\therme\Project\src/main.c:838
    ; // Wait until conversion completion
//   return ADC_GetConversionValue(ADC1);// Get the conversion value
}
void
check_temp()
{
   6:	b087      	sub	sp, #28
D:\sunny\stm32\therme\Project\src/main.c:846
  int tem;
  int cal;
  unsigned int ADCVal = 0;

  uint32_t adcs1, adcs2;
  adcs1 = 0;
   8:	462e      	mov	r6, r5
D:\sunny\stm32\therme\Project\src/main.c:849
  adcs2 = 0;

  for (fa = 0; fa < 100; fa++)
   a:	462c      	mov	r4, r5
D:\sunny\stm32\therme\Project\src/main.c:851
    {
      GetADC1Channel(ADC_Channel_4);
   c:	2004      	movs	r0, #4
   e:	f7ff fffe 	bl	0 <check_temp>
D:\sunny\stm32\therme\Project\src/main.c:852
      ADCVal = ADC_GetConversionValue(ADC1);
  12:	489d      	ldr	r0, [pc, #628]	; (278 <ADC_GetConversionValue+0x278>)
  14:	f7ff fffe 	bl	0 <ADC_GetConversionValue>
D:\sunny\stm32\therme\Project\src/main.c:853
      adcs1 += ADCVal;
  18:	1836      	adds	r6, r6, r0
D:\sunny\stm32\therme\Project\src/main.c:855

      GetADC1Channel(ADC_Channel_6);
  1a:	2006      	movs	r0, #6
  1c:	f7ff fffe 	bl	0 <check_temp>
D:\sunny\stm32\therme\Project\src/main.c:856
      ADCVal = ADC_GetConversionValue(ADC1);
  20:	4899      	ldr	r0, [pc, #612]	; (268 <ADC_GetConversionValue+0x268>)
  22:	f7ff fffe 	bl	0 <ADC_GetConversionValue>
D:\sunny\stm32\therme\Project\src/main.c:849

  uint32_t adcs1, adcs2;
  adcs1 = 0;
  adcs2 = 0;

  for (fa = 0; fa < 100; fa++)
  26:	3401      	adds	r4, #1
  28:	2c64      	cmp	r4, #100	; 0x64
D:\sunny\stm32\therme\Project\src/main.c:857
      ADCVal = ADC_GetConversionValue(ADC1);
      adcs1 += ADCVal;

      GetADC1Channel(ADC_Channel_6);
      ADCVal = ADC_GetConversionValue(ADC1);
      adcs2 += ADCVal;
  2a:	4405      	add	r5, r0
D:\sunny\stm32\therme\Project\src/main.c:849

  uint32_t adcs1, adcs2;
  adcs1 = 0;
  adcs2 = 0;

  for (fa = 0; fa < 100; fa++)
  2c:	d1ee      	bne.n	c <check_temp+0xc>
D:\sunny\stm32\therme\Project\src/main.c:860
      GetADC1Channel(ADC_Channel_6);
      ADCVal = ADC_GetConversionValue(ADC1);
      adcs2 += ADCVal;
    }

  adc_p1 = adcs1 / 100;
  2e:	fbb6 f3f4 	udiv	r3, r6, r4
D:\sunny\stm32\therme\Project\src/main.c:861
  adc_p2 = adcs2 / 100;
  32:	4e96      	ldr	r6, [pc, #600]	; (28c <check_temp+0x28c>)
  34:	fbb5 f4f4 	udiv	r4, r5, r4
D:\sunny\stm32\therme\Project\src/main.c:860
      GetADC1Channel(ADC_Channel_6);
      ADCVal = ADC_GetConversionValue(ADC1);
      adcs2 += ADCVal;
    }

  adc_p1 = adcs1 / 100;
  38:	4a95      	ldr	r2, [pc, #596]	; (290 <check_temp+0x290>)
D:\sunny\stm32\therme\Project\src/main.c:861
  adc_p2 = adcs2 / 100;
  3a:	6034      	str	r4, [r6, #0]
  3c:	4c95      	ldr	r4, [pc, #596]	; (294 <check_temp+0x294>)
D:\sunny\stm32\therme\Project\src/main.c:860
      GetADC1Channel(ADC_Channel_6);
      ADCVal = ADC_GetConversionValue(ADC1);
      adcs2 += ADCVal;
    }

  adc_p1 = adcs1 / 100;
  3e:	6013      	str	r3, [r2, #0]
D:\sunny\stm32\therme\Project\src/main.c:861
  adc_p2 = adcs2 / 100;
  40:	4621      	mov	r1, r4
D:\sunny\stm32\therme\Project\src/main.c:863

  for (i = 0; i < 161; i++)
  42:	2000      	movs	r0, #0
D:\sunny\stm32\therme\Project\src/main.c:865
    {
      if (adc_p1 <= temp_adcs[i])
  44:	f851 2f04 	ldr.w	r2, [r1, #4]!
  48:	4293      	cmp	r3, r2
  4a:	d816      	bhi.n	7a <check_temp+0x7a>
D:\sunny\stm32\therme\Project\src/main.c:867
        {
          if ((temp_adcs[i] - adc_p1) > (adc_p1 - temp_adcs[i - 1]))
  4c:	4992      	ldr	r1, [pc, #584]	; (298 <check_temp+0x298>)
  4e:	1e45      	subs	r5, r0, #1
  50:	f851 1025 	ldr.w	r1, [r1, r5, lsl #2]
  54:	1ad2      	subs	r2, r2, r3
  56:	1a5b      	subs	r3, r3, r1
  58:	429a      	cmp	r2, r3
  5a:	4d90      	ldr	r5, [pc, #576]	; (29c <check_temp+0x29c>)
  5c:	d907      	bls.n	6e <check_temp+0x6e>
D:\sunny\stm32\therme\Project\src/main.c:869
            {
              temp_p1 = i - 49.5;
  5e:	f7ff fffe 	bl	0 <__aeabi_i2d>
  62:	a387      	add	r3, pc, #540	; (adr r3, 280 <check_temp+0x280>)
  64:	e9d3 2300 	ldrd	r2, r3, [r3]
  68:	f7ff fffe 	bl	0 <__aeabi_dsub>
  6c:	e002      	b.n	74 <check_temp+0x74>
D:\sunny\stm32\therme\Project\src/main.c:872
              break;
            }
          temp_p1 = i - 50;
  6e:	3832      	subs	r0, #50	; 0x32
  70:	f7ff fffe 	bl	0 <__aeabi_i2d>
  74:	e9c5 0100 	strd	r0, r1, [r5]
D:\sunny\stm32\therme\Project\src/main.c:873
          break;
  78:	e002      	b.n	80 <check_temp+0x80>
D:\sunny\stm32\therme\Project\src/main.c:863
    }

  adc_p1 = adcs1 / 100;
  adc_p2 = adcs2 / 100;

  for (i = 0; i < 161; i++)
  7a:	3001      	adds	r0, #1
  7c:	28a1      	cmp	r0, #161	; 0xa1
  7e:	d1e1      	bne.n	44 <check_temp+0x44>
D:\sunny\stm32\therme\Project\src/main.c:881

    }

  for (i = 0; i < 161; i++)
    {
      if (adc_p2 <= temp_adcs[i])
  80:	6833      	ldr	r3, [r6, #0]
D:\sunny\stm32\therme\Project\src/main.c:879

        }

    }

  for (i = 0; i < 161; i++)
  82:	2000      	movs	r0, #0
D:\sunny\stm32\therme\Project\src/main.c:881
    {
      if (adc_p2 <= temp_adcs[i])
  84:	f854 2f04 	ldr.w	r2, [r4, #4]!
  88:	4293      	cmp	r3, r2
  8a:	d816      	bhi.n	ba <check_temp+0xba>
D:\sunny\stm32\therme\Project\src/main.c:883
        {
          if ((temp_adcs[i] - adc_p2) > (adc_p2 - temp_adcs[i - 1]))
  8c:	4982      	ldr	r1, [pc, #520]	; (298 <check_temp+0x298>)
  8e:	1e44      	subs	r4, r0, #1
  90:	f851 1024 	ldr.w	r1, [r1, r4, lsl #2]
  94:	1ad2      	subs	r2, r2, r3
  96:	1a5b      	subs	r3, r3, r1
  98:	429a      	cmp	r2, r3
  9a:	4c81      	ldr	r4, [pc, #516]	; (2a0 <check_temp+0x2a0>)
  9c:	d907      	bls.n	ae <check_temp+0xae>
D:\sunny\stm32\therme\Project\src/main.c:885
            {
              temp_p2 = i - 49.5;
  9e:	f7ff fffe 	bl	0 <__aeabi_i2d>
  a2:	a377      	add	r3, pc, #476	; (adr r3, 280 <check_temp+0x280>)
  a4:	e9d3 2300 	ldrd	r2, r3, [r3]
  a8:	f7ff fffe 	bl	0 <__aeabi_dsub>
  ac:	e002      	b.n	b4 <check_temp+0xb4>
D:\sunny\stm32\therme\Project\src/main.c:888
              break;
            }
          temp_p2 = i - 50;
  ae:	3832      	subs	r0, #50	; 0x32
  b0:	f7ff fffe 	bl	0 <__aeabi_i2d>
  b4:	e9c4 0100 	strd	r0, r1, [r4]
D:\sunny\stm32\therme\Project\src/main.c:889
          break;
  b8:	e002      	b.n	c0 <check_temp+0xc0>
D:\sunny\stm32\therme\Project\src/main.c:879

        }

    }

  for (i = 0; i < 161; i++)
  ba:	3001      	adds	r0, #1
  bc:	28a1      	cmp	r0, #161	; 0xa1
  be:	d1e1      	bne.n	84 <check_temp+0x84>
D:\sunny\stm32\therme\Project\src/main.c:893
          temp_p2 = i - 50;
          break;
        }
    }

  cal = ebuff[60] / 2;
  c0:	4e78      	ldr	r6, [pc, #480]	; (2a4 <check_temp+0x2a4>)
D:\sunny\stm32\therme\Project\src/main.c:894
  temp_p1 += cal;
  c2:	4c76      	ldr	r4, [pc, #472]	; (29c <check_temp+0x29c>)
D:\sunny\stm32\therme\Project\src/main.c:893
          temp_p2 = i - 50;
          break;
        }
    }

  cal = ebuff[60] / 2;
  c4:	f996 003c 	ldrsb.w	r0, [r6, #60]	; 0x3c
D:\sunny\stm32\therme\Project\src/main.c:897
  temp_p1 += cal;
  
  cal = ebuff[61] / 2;
  temp_p2 += cal;
  c8:	4d75      	ldr	r5, [pc, #468]	; (2a0 <check_temp+0x2a0>)
D:\sunny\stm32\therme\Project\src/main.c:893
          temp_p2 = i - 50;
          break;
        }
    }

  cal = ebuff[60] / 2;
  ca:	eb00 70d0 	add.w	r0, r0, r0, lsr #31
D:\sunny\stm32\therme\Project\src/main.c:894
  temp_p1 += cal;
  ce:	1040      	asrs	r0, r0, #1
  d0:	f7ff fffe 	bl	0 <__aeabi_i2d>
  d4:	e9d4 2300 	ldrd	r2, r3, [r4]
  d8:	f7ff fffe 	bl	0 <__aeabi_dadd>
  dc:	4682      	mov	sl, r0
D:\sunny\stm32\therme\Project\src/main.c:896
  
  cal = ebuff[61] / 2;
  de:	f996 003d 	ldrsb.w	r0, [r6, #61]	; 0x3d
D:\sunny\stm32\therme\Project\src/main.c:894
          break;
        }
    }

  cal = ebuff[60] / 2;
  temp_p1 += cal;
  e2:	468b      	mov	fp, r1
D:\sunny\stm32\therme\Project\src/main.c:896
  
  cal = ebuff[61] / 2;
  e4:	eb00 70d0 	add.w	r0, r0, r0, lsr #31
D:\sunny\stm32\therme\Project\src/main.c:894
          break;
        }
    }

  cal = ebuff[60] / 2;
  temp_p1 += cal;
  e8:	e9c4 ab00 	strd	sl, fp, [r4]
D:\sunny\stm32\therme\Project\src/main.c:897
  
  cal = ebuff[61] / 2;
  temp_p2 += cal;
  ec:	1040      	asrs	r0, r0, #1
  ee:	f7ff fffe 	bl	0 <__aeabi_i2d>
  f2:	460b      	mov	r3, r1
  f4:	4602      	mov	r2, r0
  f6:	e9d5 0100 	ldrd	r0, r1, [r5]
  fa:	f7ff fffe 	bl	0 <__aeabi_dadd>
D:\sunny\stm32\therme\Project\src/main.c:899
  
  if(err_com == 2)
  fe:	4f6a      	ldr	r7, [pc, #424]	; (2a8 <check_temp+0x2a8>)
 100:	46a0      	mov	r8, r4
 102:	783b      	ldrb	r3, [r7, #0]
D:\sunny\stm32\therme\Project\src/main.c:897

  cal = ebuff[60] / 2;
  temp_p1 += cal;
  
  cal = ebuff[61] / 2;
  temp_p2 += cal;
 104:	e9c5 0100 	strd	r0, r1, [r5]
D:\sunny\stm32\therme\Project\src/main.c:899
  
  if(err_com == 2)
 108:	2b02      	cmp	r3, #2
 10a:	4c68      	ldr	r4, [pc, #416]	; (2ac <check_temp+0x2ac>)
 10c:	d10f      	bne.n	12e <check_temp+0x12e>
D:\sunny\stm32\therme\Project\src/main.c:901
  {
	  if(ebuff[22] < temp_p1)
 10e:	f996 0016 	ldrsb.w	r0, [r6, #22]
 112:	f7ff fffe 	bl	0 <__aeabi_i2d>
 116:	4652      	mov	r2, sl
 118:	465b      	mov	r3, fp
 11a:	f7ff fffe 	bl	0 <__aeabi_dcmplt>
 11e:	b128      	cbz	r0, 12c <check_temp+0x12c>
D:\sunny\stm32\therme\Project\src/main.c:903
	  {
		  start = 3;
 120:	4b63      	ldr	r3, [pc, #396]	; (2b0 <check_temp+0x2b0>)
 122:	2203      	movs	r2, #3
 124:	701a      	strb	r2, [r3, #0]
D:\sunny\stm32\therme\Project\src/main.c:904
		  err_c[2] = 1;
 126:	2301      	movs	r3, #1
 128:	70a3      	strb	r3, [r4, #2]
 12a:	e000      	b.n	12e <check_temp+0x12e>
D:\sunny\stm32\therme\Project\src/main.c:906
	  }
	  else err_com = 0;
 12c:	7038      	strb	r0, [r7, #0]
D:\sunny\stm32\therme\Project\src/main.c:911
	  
	  
  }	  
    
  if(temp_p1<-40)
 12e:	e9d8 0100 	ldrd	r0, r1, [r8]
 132:	2200      	movs	r2, #0
 134:	4b5f      	ldr	r3, [pc, #380]	; (2b4 <check_temp+0x2b4>)
 136:	f7ff fffe 	bl	0 <__aeabi_dcmplt>
 13a:	b128      	cbz	r0, 148 <check_temp+0x148>
D:\sunny\stm32\therme\Project\src/main.c:913
  { 
	err_c[0] = 1;
 13c:	2301      	movs	r3, #1
 13e:	7023      	strb	r3, [r4, #0]
D:\sunny\stm32\therme\Project\src/main.c:914
	start = 3;
 140:	4b5b      	ldr	r3, [pc, #364]	; (2b0 <check_temp+0x2b0>)
 142:	2203      	movs	r2, #3
 144:	701a      	strb	r2, [r3, #0]
 146:	e001      	b.n	14c <check_temp+0x14c>
D:\sunny\stm32\therme\Project\src/main.c:917
	
  }	  
  else err_c[0] = 0;
 148:	2300      	movs	r3, #0
 14a:	7023      	strb	r3, [r4, #0]
D:\sunny\stm32\therme\Project\src/main.c:919
      
  if(temp_p2 < -40) err_c[1] = 1;
 14c:	e9d5 0100 	ldrd	r0, r1, [r5]
 150:	2200      	movs	r2, #0
 152:	4b58      	ldr	r3, [pc, #352]	; (2b4 <check_temp+0x2b4>)
 154:	f7ff fffe 	bl	0 <__aeabi_dcmplt>
 158:	b108      	cbz	r0, 15e <check_temp+0x15e>
 15a:	2301      	movs	r3, #1
 15c:	e000      	b.n	160 <check_temp+0x160>
D:\sunny\stm32\therme\Project\src/main.c:920
  else err_c[1] = 0;
 15e:	2300      	movs	r3, #0
D:\sunny\stm32\therme\Project\src/main.c:922

  if ((temp_tp1 - temp_p1) > 0.5)
 160:	4f55      	ldr	r7, [pc, #340]	; (2b8 <check_temp+0x2b8>)
D:\sunny\stm32\therme\Project\src/main.c:920
	
  }	  
  else err_c[0] = 0;
      
  if(temp_p2 < -40) err_c[1] = 1;
  else err_c[1] = 0;
 162:	7063      	strb	r3, [r4, #1]
D:\sunny\stm32\therme\Project\src/main.c:922

  if ((temp_tp1 - temp_p1) > 0.5)
 164:	e9d7 ab00 	ldrd	sl, fp, [r7]
 168:	e9d8 2300 	ldrd	r2, r3, [r8]
 16c:	4650      	mov	r0, sl
 16e:	4659      	mov	r1, fp
 170:	e9cd 2302 	strd	r2, r3, [sp, #8]
 174:	f7ff fffe 	bl	0 <__aeabi_dsub>
 178:	2200      	movs	r2, #0
 17a:	4b50      	ldr	r3, [pc, #320]	; (2bc <check_temp+0x2bc>)
 17c:	e9cd 0104 	strd	r0, r1, [sp, #16]
 180:	f7ff fffe 	bl	0 <__aeabi_dcmpgt>
 184:	b130      	cbz	r0, 194 <check_temp+0x194>
D:\sunny\stm32\therme\Project\src/main.c:923
    temp_tp1 -= 0.5;
 186:	4650      	mov	r0, sl
 188:	4659      	mov	r1, fp
 18a:	2200      	movs	r2, #0
 18c:	4b4b      	ldr	r3, [pc, #300]	; (2bc <check_temp+0x2bc>)
 18e:	f7ff fffe 	bl	0 <__aeabi_dsub>
 192:	e00c      	b.n	1ae <check_temp+0x1ae>
D:\sunny\stm32\therme\Project\src/main.c:924
  else if ((temp_tp1 - temp_p1) < -0.5)
 194:	e9dd 0104 	ldrd	r0, r1, [sp, #16]
 198:	2200      	movs	r2, #0
 19a:	4b49      	ldr	r3, [pc, #292]	; (2c0 <check_temp+0x2c0>)
 19c:	f7ff fffe 	bl	0 <__aeabi_dcmplt>
 1a0:	b140      	cbz	r0, 1b4 <check_temp+0x1b4>
D:\sunny\stm32\therme\Project\src/main.c:925
    temp_tp1 += 0.5;
 1a2:	4650      	mov	r0, sl
 1a4:	4659      	mov	r1, fp
 1a6:	2200      	movs	r2, #0
 1a8:	4b44      	ldr	r3, [pc, #272]	; (2bc <check_temp+0x2bc>)
 1aa:	f7ff fffe 	bl	0 <__aeabi_dadd>
 1ae:	e9c7 0100 	strd	r0, r1, [r7]
 1b2:	e003      	b.n	1bc <check_temp+0x1bc>
D:\sunny\stm32\therme\Project\src/main.c:927
  else
    temp_tp1 = temp_p1;
 1b4:	e9dd 2302 	ldrd	r2, r3, [sp, #8]
 1b8:	e9c7 2300 	strd	r2, r3, [r7]
D:\sunny\stm32\therme\Project\src/main.c:929

  if ((temp_tp2 - temp_p2) > 0.5)
 1bc:	4e41      	ldr	r6, [pc, #260]	; (2c4 <check_temp+0x2c4>)
 1be:	e9d5 2300 	ldrd	r2, r3, [r5]
 1c2:	e9d6 ab00 	ldrd	sl, fp, [r6]
 1c6:	4650      	mov	r0, sl
 1c8:	4659      	mov	r1, fp
 1ca:	e9cd 2302 	strd	r2, r3, [sp, #8]
 1ce:	f7ff fffe 	bl	0 <__aeabi_dsub>
 1d2:	2200      	movs	r2, #0
 1d4:	4b39      	ldr	r3, [pc, #228]	; (2bc <check_temp+0x2bc>)
 1d6:	e9cd 0104 	strd	r0, r1, [sp, #16]
 1da:	f7ff fffe 	bl	0 <__aeabi_dcmpgt>
 1de:	b130      	cbz	r0, 1ee <check_temp+0x1ee>
D:\sunny\stm32\therme\Project\src/main.c:930
    temp_tp2 -= 0.5;
 1e0:	4650      	mov	r0, sl
 1e2:	4659      	mov	r1, fp
 1e4:	2200      	movs	r2, #0
 1e6:	4b35      	ldr	r3, [pc, #212]	; (2bc <check_temp+0x2bc>)
 1e8:	f7ff fffe 	bl	0 <__aeabi_dsub>
 1ec:	e00c      	b.n	208 <check_temp+0x208>
D:\sunny\stm32\therme\Project\src/main.c:931
  else if ((temp_tp2 - temp_p2) < -0.5)
 1ee:	e9dd 0104 	ldrd	r0, r1, [sp, #16]
 1f2:	2200      	movs	r2, #0
 1f4:	4b32      	ldr	r3, [pc, #200]	; (2c0 <check_temp+0x2c0>)
 1f6:	f7ff fffe 	bl	0 <__aeabi_dcmplt>
 1fa:	b140      	cbz	r0, 20e <check_temp+0x20e>
D:\sunny\stm32\therme\Project\src/main.c:932
    temp_tp2 += 0.5;
 1fc:	4650      	mov	r0, sl
 1fe:	4659      	mov	r1, fp
 200:	2200      	movs	r2, #0
 202:	4b2e      	ldr	r3, [pc, #184]	; (2bc <check_temp+0x2bc>)
 204:	f7ff fffe 	bl	0 <__aeabi_dadd>
 208:	e9c6 0100 	strd	r0, r1, [r6]
 20c:	e003      	b.n	216 <check_temp+0x216>
D:\sunny\stm32\therme\Project\src/main.c:934
  else
    temp_tp2 = temp_p2;
 20e:	e9dd 2302 	ldrd	r2, r3, [sp, #8]
 212:	e9c6 2300 	strd	r2, r3, [r6]
D:\sunny\stm32\therme\Project\src/main.c:936

  temp_p1 = temp_tp1;
 216:	e9d7 ab00 	ldrd	sl, fp, [r7]
D:\sunny\stm32\therme\Project\src/main.c:937
  temp_p2 = temp_tp2;
 21a:	e9d6 2300 	ldrd	r2, r3, [r6]
D:\sunny\stm32\therme\Project\src/main.c:936
  else if ((temp_tp2 - temp_p2) < -0.5)
    temp_tp2 += 0.5;
  else
    temp_tp2 = temp_p2;

  temp_p1 = temp_tp1;
 21e:	e9c8 ab00 	strd	sl, fp, [r8]
D:\sunny\stm32\therme\Project\src/main.c:937
  temp_p2 = temp_tp2;
 222:	e9c5 2300 	strd	r2, r3, [r5]
D:\sunny\stm32\therme\Project\src/main.c:939

  tem = temp_p1 * 10;
 226:	4650      	mov	r0, sl
 228:	2200      	movs	r2, #0
 22a:	4b27      	ldr	r3, [pc, #156]	; (2c8 <check_temp+0x2c8>)
 22c:	4659      	mov	r1, fp
 22e:	f7ff fffe 	bl	0 <__aeabi_dmul>
 232:	f7ff fffe 	bl	0 <__aeabi_d2iz>
D:\sunny\stm32\therme\Project\src/main.c:941

  if (temp_p1 < 0)
 236:	2200      	movs	r2, #0
D:\sunny\stm32\therme\Project\src/main.c:939
    temp_tp2 = temp_p2;

  temp_p1 = temp_tp1;
  temp_p2 = temp_tp2;

  tem = temp_p1 * 10;
 238:	4606      	mov	r6, r0
D:\sunny\stm32\therme\Project\src/main.c:941

  if (temp_p1 < 0)
 23a:	4659      	mov	r1, fp
 23c:	4650      	mov	r0, sl
 23e:	2300      	movs	r3, #0
 240:	f7ff fffe 	bl	0 <__aeabi_dcmplt>
 244:	4f14      	ldr	r7, [pc, #80]	; (298 <check_temp+0x298>)
 246:	2264      	movs	r2, #100	; 0x64
 248:	f04f 0e0a 	mov.w	lr, #10
 24c:	2800      	cmp	r0, #0
 24e:	d041      	beq.n	2d4 <check_temp+0x2d4>
D:\sunny\stm32\therme\Project\src/main.c:943
    {
      tem *= -1;
 250:	4276      	negs	r6, r6
D:\sunny\stm32\therme\Project\src/main.c:944
      sprintf(tempc1, "-%d%d.%d", tem / 100, (tem / 10) % 10, (tem % 10));
 252:	fb96 f3fe 	sdiv	r3, r6, lr
 256:	fb0e 6113 	mls	r1, lr, r3, r6
 25a:	fb93 fcfe 	sdiv	ip, r3, lr
 25e:	9100      	str	r1, [sp, #0]
 260:	fb0e 331c 	mls	r3, lr, ip, r3
 264:	4819      	ldr	r0, [pc, #100]	; (2cc <check_temp+0x2cc>)
 266:	491a      	ldr	r1, [pc, #104]	; (2d0 <check_temp+0x2d0>)
 268:	fb96 f2f2 	sdiv	r2, r6, r2
 26c:	f7ff fffe 	bl	0 <sprintf>
D:\sunny\stm32\therme\Project\src/main.c:945
      if (locks == 1)
 270:	f897 3284 	ldrb.w	r3, [r7, #644]	; 0x284
 274:	2b01      	cmp	r3, #1
 276:	d143      	bne.n	300 <check_temp+0x300>
D:\sunny\stm32\therme\Project\src/main.c:946
        temp_[0] = 17;
 278:	2211      	movs	r2, #17
 27a:	e03f      	b.n	2fc <check_temp+0x2fc>
 27c:	f3af 8000 	nop.w
 280:	00000000 	.word	0x00000000
 284:	4048c000 	.word	0x4048c000
 288:	40012400 	.word	0x40012400
	...
 294:	fffffffc 	.word	0xfffffffc
	...
 2b4:	c0440000 	.word	0xc0440000
 2b8:	00000000 	.word	0x00000000
 2bc:	3fe00000 	.word	0x3fe00000
 2c0:	bfe00000 	.word	0xbfe00000
 2c4:	00000000 	.word	0x00000000
 2c8:	40240000 	.word	0x40240000
 2cc:	00000000 	.word	0x00000000
 2d0:	0000005d 	.word	0x0000005d
D:\sunny\stm32\therme\Project\src/main.c:950
    }
  else
    {
      sprintf(tempc1, " %d%d.%d", tem / 100, (tem / 10) % 10, (tem % 10));
 2d4:	fb96 f3fe 	sdiv	r3, r6, lr
 2d8:	fb0e 6113 	mls	r1, lr, r3, r6
 2dc:	fb93 fcfe 	sdiv	ip, r3, lr
 2e0:	9100      	str	r1, [sp, #0]
 2e2:	fb0e 331c 	mls	r3, lr, ip, r3
 2e6:	4841      	ldr	r0, [pc, #260]	; (3ec <check_temp+0x3ec>)
 2e8:	4941      	ldr	r1, [pc, #260]	; (3f0 <check_temp+0x3f0>)
 2ea:	fb96 f2f2 	sdiv	r2, r6, r2
 2ee:	f7ff fffe 	bl	0 <sprintf>
D:\sunny\stm32\therme\Project\src/main.c:951
      if (locks == 1)
 2f2:	f897 3284 	ldrb.w	r3, [r7, #644]	; 0x284
 2f6:	2b01      	cmp	r3, #1
 2f8:	d102      	bne.n	300 <check_temp+0x300>
D:\sunny\stm32\therme\Project\src/main.c:952
        temp_[0] = 19;
 2fa:	2213      	movs	r2, #19
 2fc:	4b3d      	ldr	r3, [pc, #244]	; (3f4 <check_temp+0x3f4>)
 2fe:	701a      	strb	r2, [r3, #0]
D:\sunny\stm32\therme\Project\src/main.c:955
    }

  if (locks == 1)
 300:	f897 3284 	ldrb.w	r3, [r7, #644]	; 0x284
 304:	2b01      	cmp	r3, #1
 306:	d10c      	bne.n	322 <check_temp+0x322>
D:\sunny\stm32\therme\Project\src/main.c:956
    temp_[1] = (tem / 10) % 10;
 308:	3309      	adds	r3, #9
 30a:	fb96 f1f3 	sdiv	r1, r6, r3
 30e:	fb91 f0f3 	sdiv	r0, r1, r3
 312:	fb03 1310 	mls	r3, r3, r0, r1
 316:	4a37      	ldr	r2, [pc, #220]	; (3f4 <check_temp+0x3f4>)
 318:	7053      	strb	r3, [r2, #1]
D:\sunny\stm32\therme\Project\src/main.c:958
  if (locks == 1)
    temp_[2] = tem / 100;
 31a:	2364      	movs	r3, #100	; 0x64
 31c:	fb96 f6f3 	sdiv	r6, r6, r3
 320:	7096      	strb	r6, [r2, #2]
D:\sunny\stm32\therme\Project\src/main.c:960

  tem = temp_p2 * 10;
 322:	e9d5 8900 	ldrd	r8, r9, [r5]
 326:	2200      	movs	r2, #0
 328:	4b33      	ldr	r3, [pc, #204]	; (3f8 <check_temp+0x3f8>)
 32a:	4640      	mov	r0, r8
 32c:	4649      	mov	r1, r9
 32e:	f7ff fffe 	bl	0 <__aeabi_dmul>
 332:	f7ff fffe 	bl	0 <__aeabi_d2iz>
D:\sunny\stm32\therme\Project\src/main.c:961
  if (temp_p2 < 0)
 336:	2200      	movs	r2, #0
D:\sunny\stm32\therme\Project\src/main.c:960
  if (locks == 1)
    temp_[1] = (tem / 10) % 10;
  if (locks == 1)
    temp_[2] = tem / 100;

  tem = temp_p2 * 10;
 338:	4605      	mov	r5, r0
D:\sunny\stm32\therme\Project\src/main.c:961
  if (temp_p2 < 0)
 33a:	4649      	mov	r1, r9
 33c:	4640      	mov	r0, r8
 33e:	2300      	movs	r3, #0
 340:	f7ff fffe 	bl	0 <__aeabi_dcmplt>
 344:	260a      	movs	r6, #10
 346:	2264      	movs	r2, #100	; 0x64
 348:	b1a8      	cbz	r0, 376 <check_temp+0x376>
D:\sunny\stm32\therme\Project\src/main.c:963
    {
      tem *= -1;
 34a:	426d      	negs	r5, r5
D:\sunny\stm32\therme\Project\src/main.c:964
      sprintf(tempc2, "-%d%d.%d", tem / 100, (tem / 10) % 10, (tem % 10));
 34c:	fb95 f3f6 	sdiv	r3, r5, r6
 350:	fb06 5113 	mls	r1, r6, r3, r5
 354:	fb93 fef6 	sdiv	lr, r3, r6
 358:	9100      	str	r1, [sp, #0]
 35a:	fb06 331e 	mls	r3, r6, lr, r3
 35e:	4827      	ldr	r0, [pc, #156]	; (3fc <check_temp+0x3fc>)
 360:	4927      	ldr	r1, [pc, #156]	; (400 <check_temp+0x400>)
 362:	fb95 f2f2 	sdiv	r2, r5, r2
 366:	f7ff fffe 	bl	0 <sprintf>
D:\sunny\stm32\therme\Project\src/main.c:965
      if (locks == 1)
 36a:	f897 3284 	ldrb.w	r3, [r7, #644]	; 0x284
 36e:	2b01      	cmp	r3, #1
 370:	d117      	bne.n	3a2 <check_temp+0x3a2>
D:\sunny\stm32\therme\Project\src/main.c:966
        temp_1[0] = 17;
 372:	2211      	movs	r2, #17
 374:	e013      	b.n	39e <check_temp+0x39e>
D:\sunny\stm32\therme\Project\src/main.c:970
    }
  else
    {
      sprintf(tempc2, " %d%d.%d", tem / 100, (tem / 10) % 10, (tem % 10));
 376:	fb95 f3f6 	sdiv	r3, r5, r6
 37a:	fb06 5113 	mls	r1, r6, r3, r5
 37e:	fb93 fef6 	sdiv	lr, r3, r6
 382:	9100      	str	r1, [sp, #0]
 384:	fb06 331e 	mls	r3, r6, lr, r3
 388:	481c      	ldr	r0, [pc, #112]	; (3fc <check_temp+0x3fc>)
 38a:	4919      	ldr	r1, [pc, #100]	; (3f0 <check_temp+0x3f0>)
 38c:	fb95 f2f2 	sdiv	r2, r5, r2
 390:	f7ff fffe 	bl	0 <sprintf>
D:\sunny\stm32\therme\Project\src/main.c:971
      if (locks == 1)
 394:	f897 3284 	ldrb.w	r3, [r7, #644]	; 0x284
 398:	2b01      	cmp	r3, #1
 39a:	d102      	bne.n	3a2 <check_temp+0x3a2>
D:\sunny\stm32\therme\Project\src/main.c:972
        temp_1[0] = 19;
 39c:	2213      	movs	r2, #19
 39e:	4b19      	ldr	r3, [pc, #100]	; (404 <check_temp+0x404>)
 3a0:	701a      	strb	r2, [r3, #0]
D:\sunny\stm32\therme\Project\src/main.c:974
    }
  if (locks == 1)
 3a2:	f897 3284 	ldrb.w	r3, [r7, #644]	; 0x284
 3a6:	2b01      	cmp	r3, #1
 3a8:	d10c      	bne.n	3c4 <check_temp+0x3c4>
D:\sunny\stm32\therme\Project\src/main.c:975
    temp_1[1] = (tem / 10) % 10;
 3aa:	3309      	adds	r3, #9
 3ac:	fb95 f1f3 	sdiv	r1, r5, r3
 3b0:	fb91 f0f3 	sdiv	r0, r1, r3
 3b4:	fb03 1310 	mls	r3, r3, r0, r1
 3b8:	4a12      	ldr	r2, [pc, #72]	; (404 <check_temp+0x404>)
 3ba:	7053      	strb	r3, [r2, #1]
D:\sunny\stm32\therme\Project\src/main.c:977
  if (locks == 1)
    temp_1[2] = tem / 100;
 3bc:	2364      	movs	r3, #100	; 0x64
 3be:	fb95 f5f3 	sdiv	r5, r5, r3
 3c2:	7095      	strb	r5, [r2, #2]
D:\sunny\stm32\therme\Project\src/main.c:979

if(err_c[0]==1)
 3c4:	7823      	ldrb	r3, [r4, #0]
 3c6:	2b01      	cmp	r3, #1
 3c8:	d103      	bne.n	3d2 <check_temp+0x3d2>
D:\sunny\stm32\therme\Project\src/main.c:981
  { 
	sprintf(tempc1, " E 01");
 3ca:	4808      	ldr	r0, [pc, #32]	; (3ec <check_temp+0x3ec>)
 3cc:	490e      	ldr	r1, [pc, #56]	; (408 <check_temp+0x408>)
 3ce:	f7ff fffe 	bl	0 <strcpy>
D:\sunny\stm32\therme\Project\src/main.c:983
  }	  
  if(err_c[1]==1)
 3d2:	7863      	ldrb	r3, [r4, #1]
 3d4:	2b01      	cmp	r3, #1
 3d6:	d106      	bne.n	3e6 <check_temp+0x3e6>
D:\sunny\stm32\therme\Project\src/main.c:985
  { 
	sprintf(tempc2, " E 02");
 3d8:	4808      	ldr	r0, [pc, #32]	; (3fc <check_temp+0x3fc>)
 3da:	490c      	ldr	r1, [pc, #48]	; (40c <check_temp+0x40c>)
D:\sunny\stm32\therme\Project\src/main.c:988
  }	  

}
 3dc:	b007      	add	sp, #28
 3de:	e8bd 4ff0 	ldmia.w	sp!, {r4, r5, r6, r7, r8, r9, sl, fp, lr}
D:\sunny\stm32\therme\Project\src/main.c:985
  { 
	sprintf(tempc1, " E 01");
  }	  
  if(err_c[1]==1)
  { 
	sprintf(tempc2, " E 02");
 3e2:	f7ff bffe 	b.w	0 <strcpy>
D:\sunny\stm32\therme\Project\src/main.c:988
  }	  

}
 3e6:	b007      	add	sp, #28
 3e8:	e8bd 8ff0 	ldmia.w	sp!, {r4, r5, r6, r7, r8, r9, sl, fp, pc}
 3ec:	00000000 	.word	0x00000000
 3f0:	00000066 	.word	0x00000066
 3f4:	00000000 	.word	0x00000000
 3f8:	40240000 	.word	0x40240000
 3fc:	00000000 	.word	0x00000000
 400:	0000005d 	.word	0x0000005d
 404:	00000000 	.word	0x00000000
 408:	0000006f 	.word	0x0000006f
 40c:	00000075 	.word	0x00000075

Disassembly of section .text.set_led_off:

00000000 <set_led_off>:
set_led_off():
D:\sunny\stm32\therme\Project\src/main.c:1034
  show_seg1(temp_);

}
void set_led_off(unsigned char pbuf,char tsi)
{
  tsi = 1 << tsi;
   0:	408b2301 	.word	0x408b2301
D:\sunny\stm32\therme\Project\src/main.c:1033
    }
  show_seg1(temp_);

}
void set_led_off(unsigned char pbuf,char tsi)
{
   4:	b510      	push	{r4, lr}
D:\sunny\stm32\therme\Project\src/main.c:1035
  tsi = 1 << tsi;
  led_ |= tsi;
   6:	4a07      	ldr	r2, [pc, #28]	; (24 <set_led_off+0x24>)
D:\sunny\stm32\therme\Project\src/main.c:1037

  write_to_MCP(mcp1, OLAT0, num_digi7[pbuf], led_);
   8:	2102      	movs	r1, #2
D:\sunny\stm32\therme\Project\src/main.c:1035

}
void set_led_off(unsigned char pbuf,char tsi)
{
  tsi = 1 << tsi;
  led_ |= tsi;
   a:	7814      	ldrb	r4, [r2, #0]
   c:	4323      	orrs	r3, r4
   e:	b2db      	uxtb	r3, r3
  10:	7013      	strb	r3, [r2, #0]
D:\sunny\stm32\therme\Project\src/main.c:1037

  write_to_MCP(mcp1, OLAT0, num_digi7[pbuf], led_);
  12:	4a05      	ldr	r2, [pc, #20]	; (28 <set_led_off+0x28>)
  14:	1812      	adds	r2, r2, r0
  16:	f892 2285 	ldrb.w	r2, [r2, #645]	; 0x285
  1a:	2040      	movs	r0, #64	; 0x40
D:\sunny\stm32\therme\Project\src/main.c:1040
//write_to_MCP(mcp3, OLAT0, num_digi7[pbuf], led_);

}
  1c:	e8bd 4010 	ldmia.w	sp!, {r4, lr}
D:\sunny\stm32\therme\Project\src/main.c:1037
void set_led_off(unsigned char pbuf,char tsi)
{
  tsi = 1 << tsi;
  led_ |= tsi;

  write_to_MCP(mcp1, OLAT0, num_digi7[pbuf], led_);
  20:	f7ff bffe 	b.w	0 <write_to_MCP>
	...

Disassembly of section .text.set_led_on:

00000000 <set_led_on>:
set_led_on():
D:\sunny\stm32\therme\Project\src/main.c:1044

}

void set_led_on(unsigned char pbuf,char tsi)
{
  tsi = 1 << tsi;
   0:	2301      	movs	r3, #1
   2:	408b      	lsls	r3, r1
D:\sunny\stm32\therme\Project\src/main.c:1043
//write_to_MCP(mcp3, OLAT0, num_digi7[pbuf], led_);

}

void set_led_on(unsigned char pbuf,char tsi)
{
   4:	b510      	push	{r4, lr}
D:\sunny\stm32\therme\Project\src/main.c:1045
  tsi = 1 << tsi;
  led_ &= ~tsi;
   6:	4a07      	ldr	r2, [pc, #28]	; (24 <set_led_on+0x24>)
D:\sunny\stm32\therme\Project\src/main.c:1046
  write_to_MCP(mcp1, OLAT0, num_digi7[pbuf], led_);
   8:	2102      	movs	r1, #2
D:\sunny\stm32\therme\Project\src/main.c:1045
}

void set_led_on(unsigned char pbuf,char tsi)
{
  tsi = 1 << tsi;
  led_ &= ~tsi;
   a:	7814      	ldrb	r4, [r2, #0]
   c:	ea24 0303 	bic.w	r3, r4, r3
  10:	7013      	strb	r3, [r2, #0]
D:\sunny\stm32\therme\Project\src/main.c:1046
  write_to_MCP(mcp1, OLAT0, num_digi7[pbuf], led_);
  12:	4a05      	ldr	r2, [pc, #20]	; (28 <set_led_on+0x28>)
  14:	1812      	adds	r2, r2, r0
  16:	f892 2285 	ldrb.w	r2, [r2, #645]	; 0x285
  1a:	2040      	movs	r0, #64	; 0x40
D:\sunny\stm32\therme\Project\src/main.c:1048
//write_to_MCP(mcp3, OLAT0, num_digi7[pbuf], led_);
}
  1c:	e8bd 4010 	ldmia.w	sp!, {r4, lr}
D:\sunny\stm32\therme\Project\src/main.c:1046

void set_led_on(unsigned char pbuf,char tsi)
{
  tsi = 1 << tsi;
  led_ &= ~tsi;
  write_to_MCP(mcp1, OLAT0, num_digi7[pbuf], led_);
  20:	f7ff bffe 	b.w	0 <write_to_MCP>
	...

Disassembly of section .text.show_seg1:

00000000 <show_seg1>:
show_seg1():
D:\sunny\stm32\therme\Project\src/main.c:1052
//write_to_MCP(mcp3, OLAT0, num_digi7[pbuf], led_);
}

void
show_seg1(unsigned char *pbuf)
{
   0:	b570      	push	{r4, r5, r6, lr}
D:\sunny\stm32\therme\Project\src/main.c:1054
  unsigned char i;
  write_to_MCP(mcp1, OLAT0, (num_digi7[pbuf[0]]), (led_));
   2:	4d19      	ldr	r5, [pc, #100]	; (68 <show_seg1+0x68>)
   4:	7803      	ldrb	r3, [r0, #0]
D:\sunny\stm32\therme\Project\src/main.c:1052
//write_to_MCP(mcp3, OLAT0, num_digi7[pbuf], led_);
}

void
show_seg1(unsigned char *pbuf)
{
   6:	4604      	mov	r4, r0
D:\sunny\stm32\therme\Project\src/main.c:1054
  unsigned char i;
  write_to_MCP(mcp1, OLAT0, (num_digi7[pbuf[0]]), (led_));
   8:	18eb      	adds	r3, r5, r3
   a:	f893 2285 	ldrb.w	r2, [r3, #645]	; 0x285
   e:	4b17      	ldr	r3, [pc, #92]	; (6c <show_seg1+0x6c>)
  10:	2040      	movs	r0, #64	; 0x40
  12:	2102      	movs	r1, #2
  14:	781b      	ldrb	r3, [r3, #0]
  16:	f7ff fffe 	bl	0 <write_to_MCP>
D:\sunny\stm32\therme\Project\src/main.c:1055
  write_to_MCP(mcp2, OLAT0, (num_digi7[pbuf[1]]), (num_digi7[pbuf[2]]));
  1a:	78a2      	ldrb	r2, [r4, #2]
  1c:	7863      	ldrb	r3, [r4, #1]
  1e:	204e      	movs	r0, #78	; 0x4e
  20:	18eb      	adds	r3, r5, r3
  22:	18ad      	adds	r5, r5, r2
  24:	2102      	movs	r1, #2
  26:	f893 2285 	ldrb.w	r2, [r3, #645]	; 0x285
  2a:	f895 3285 	ldrb.w	r3, [r5, #645]	; 0x285
  2e:	f7ff fffe 	bl	0 <write_to_MCP>
  32:	4e0f      	ldr	r6, [pc, #60]	; (70 <show_seg1+0x70>)
D:\sunny\stm32\therme\Project\src/main.c:1059
  //write_to_MCP(mcp3, OLAT0, (num_digi7[pbuf[0]]), ( led_));
  //write_to_MCP(mcp4, OLAT0,(num_digi7[pbuf[1]]),(num_digi7[pbuf[2]]));

  for (i = 0; i < 4; i++)
  34:	2500      	movs	r5, #0
D:\sunny\stm32\therme\Project\src/main.c:1061
    {
      if (leds[i] == 1)
  36:	f916 3b01 	ldrsb.w	r3, [r6], #1
  3a:	2b01      	cmp	r3, #1
  3c:	d105      	bne.n	4a <show_seg1+0x4a>
D:\sunny\stm32\therme\Project\src/main.c:1063
        {
          set_led_on(pbuf[0],i);
  3e:	7820      	ldrb	r0, [r4, #0]
  40:	b269      	sxtb	r1, r5
  42:	f7ff fffe 	bl	0 <show_seg1>
D:\sunny\stm32\therme\Project\src/main.c:1064
          leds[i] = 3;
  46:	2303      	movs	r3, #3
  48:	e006      	b.n	58 <show_seg1+0x58>
D:\sunny\stm32\therme\Project\src/main.c:1066
        }
      else if (leds[i] == 2)
  4a:	2b02      	cmp	r3, #2
  4c:	d106      	bne.n	5c <show_seg1+0x5c>
D:\sunny\stm32\therme\Project\src/main.c:1068
        {
          set_led_off(pbuf[0],i);
  4e:	7820      	ldrb	r0, [r4, #0]
  50:	b269      	sxtb	r1, r5
  52:	f7ff fffe 	bl	0 <show_seg1>
D:\sunny\stm32\therme\Project\src/main.c:1069
          leds[i] = 0;
  56:	2300      	movs	r3, #0
  58:	f806 3c01 	strb.w	r3, [r6, #-1]
D:\sunny\stm32\therme\Project\src/main.c:1059
  write_to_MCP(mcp1, OLAT0, (num_digi7[pbuf[0]]), (led_));
  write_to_MCP(mcp2, OLAT0, (num_digi7[pbuf[1]]), (num_digi7[pbuf[2]]));
  //write_to_MCP(mcp3, OLAT0, (num_digi7[pbuf[0]]), ( led_));
  //write_to_MCP(mcp4, OLAT0,(num_digi7[pbuf[1]]),(num_digi7[pbuf[2]]));

  for (i = 0; i < 4; i++)
  5c:	3501      	adds	r5, #1
  5e:	b2ed      	uxtb	r5, r5
  60:	2d04      	cmp	r5, #4
  62:	d1e8      	bne.n	36 <show_seg1+0x36>
D:\sunny\stm32\therme\Project\src/main.c:1072
        {
          set_led_off(pbuf[0],i);
          leds[i] = 0;
        }
    }
}
  64:	bd70      	pop	{r4, r5, r6, pc}
  66:	bf00      	nop
	...

Disassembly of section .text.set_temp:

00000000 <set_temp>:
set_temp():
D:\sunny\stm32\therme\Project\src/main.c:1009

void
set_temp(int tsi)
{

  if (tsi < 0)
   0:	2800      	cmp	r0, #0
   2:	4b0e      	ldr	r3, [pc, #56]	; (3c <set_temp+0x3c>)
   4:	da03      	bge.n	e <set_temp+0xe>
D:\sunny\stm32\therme\Project\src/main.c:1011
    {
      temp_[0] = 17;
   6:	2211      	movs	r2, #17
   8:	701a      	strb	r2, [r3, #0]
D:\sunny\stm32\therme\Project\src/main.c:1012
      tsi = tsi * -1;
   a:	4240      	negs	r0, r0
   c:	e001      	b.n	12 <set_temp+0x12>
D:\sunny\stm32\therme\Project\src/main.c:1016
    }
  else
    {
      temp_[0] = 19;
   e:	2213      	movs	r2, #19
  10:	701a      	strb	r2, [r3, #0]
D:\sunny\stm32\therme\Project\src/main.c:1019
    }

  if (tsi > 9)
  12:	2809      	cmp	r0, #9
  14:	f04f 020a 	mov.w	r2, #10
  18:	dd06      	ble.n	28 <set_temp+0x28>
D:\sunny\stm32\therme\Project\src/main.c:1021
    {
      temp_[1] = tsi % 10;
  1a:	fb90 f1f2 	sdiv	r1, r0, r2
  1e:	fb02 0011 	mls	r0, r2, r1, r0
D:\sunny\stm32\therme\Project\src/main.c:1022
      temp_[2] = tsi / 10;
  22:	7099      	strb	r1, [r3, #2]
D:\sunny\stm32\therme\Project\src/main.c:1021
      temp_[0] = 19;
    }

  if (tsi > 9)
    {
      temp_[1] = tsi % 10;
  24:	7058      	strb	r0, [r3, #1]
  26:	e006      	b.n	36 <set_temp+0x36>
D:\sunny\stm32\therme\Project\src/main.c:1026
      temp_[2] = tsi / 10;
    }
  else
    {
      temp_[1] = tsi % 10;
  28:	fb90 f1f2 	sdiv	r1, r0, r2
  2c:	fb02 0011 	mls	r0, r2, r1, r0
D:\sunny\stm32\therme\Project\src/main.c:1027
      temp_[2] = 19;
  30:	2213      	movs	r2, #19
D:\sunny\stm32\therme\Project\src/main.c:1026
      temp_[1] = tsi % 10;
      temp_[2] = tsi / 10;
    }
  else
    {
      temp_[1] = tsi % 10;
  32:	7058      	strb	r0, [r3, #1]
D:\sunny\stm32\therme\Project\src/main.c:1027
      temp_[2] = 19;
  34:	709a      	strb	r2, [r3, #2]
D:\sunny\stm32\therme\Project\src/main.c:1029
    }
  show_seg1(temp_);
  36:	4801      	ldr	r0, [pc, #4]	; (3c <set_temp+0x3c>)
  38:	f7ff bffe 	b.w	0 <set_temp>
  3c:	00000000 	.word	0x00000000

Disassembly of section .text.show_rtc:

00000000 <show_rtc>:
show_rtc():
D:\sunny\stm32\therme\Project\src/main.c:1075
        }
    }
}
void
show_rtc()
{
   0:	b510      	push	{r4, lr}
D:\sunny\stm32\therme\Project\src/main.c:1076
  sprintf(uart_buf, "%d-%d-%d %d:%d:%d day %d\r\n", rtc[3], rtc[4], rtc[6],
   2:	490e      	ldr	r1, [pc, #56]	; (3c <show_rtc+0x3c>)
D:\sunny\stm32\therme\Project\src/main.c:1075
        }
    }
}
void
show_rtc()
{
   4:	b086      	sub	sp, #24
D:\sunny\stm32\therme\Project\src/main.c:1076
  sprintf(uart_buf, "%d-%d-%d %d:%d:%d day %d\r\n", rtc[3], rtc[4], rtc[6],
   6:	7988      	ldrb	r0, [r1, #6]
   8:	78ca      	ldrb	r2, [r1, #3]
   a:	790b      	ldrb	r3, [r1, #4]
   c:	9000      	str	r0, [sp, #0]
   e:	7888      	ldrb	r0, [r1, #2]
D:\sunny\stm32\therme\Project\src/main.c:1078
      rtc[2], rtc[1], rtc[0], rtc[5]);
  printUART1((unsigned int *) uart_buf);
  10:	4c0b      	ldr	r4, [pc, #44]	; (40 <show_rtc+0x40>)
D:\sunny\stm32\therme\Project\src/main.c:1076
    }
}
void
show_rtc()
{
  sprintf(uart_buf, "%d-%d-%d %d:%d:%d day %d\r\n", rtc[3], rtc[4], rtc[6],
  12:	9001      	str	r0, [sp, #4]
  14:	7848      	ldrb	r0, [r1, #1]
  16:	9002      	str	r0, [sp, #8]
  18:	7808      	ldrb	r0, [r1, #0]
  1a:	9003      	str	r0, [sp, #12]
  1c:	7949      	ldrb	r1, [r1, #5]
  1e:	4808      	ldr	r0, [pc, #32]	; (40 <show_rtc+0x40>)
  20:	9104      	str	r1, [sp, #16]
  22:	4908      	ldr	r1, [pc, #32]	; (44 <show_rtc+0x44>)
  24:	f7ff fffe 	bl	0 <sprintf>
D:\sunny\stm32\therme\Project\src/main.c:1078
      rtc[2], rtc[1], rtc[0], rtc[5]);
  printUART1((unsigned int *) uart_buf);
  28:	4620      	mov	r0, r4
  2a:	f7ff fffe 	bl	0 <printUART1>
D:\sunny\stm32\therme\Project\src/main.c:1079
  printUART2((unsigned int *) uart_buf);
  2e:	4620      	mov	r0, r4
D:\sunny\stm32\therme\Project\src/main.c:1081

}
  30:	b006      	add	sp, #24
  32:	e8bd 4010 	ldmia.w	sp!, {r4, lr}
D:\sunny\stm32\therme\Project\src/main.c:1079
show_rtc()
{
  sprintf(uart_buf, "%d-%d-%d %d:%d:%d day %d\r\n", rtc[3], rtc[4], rtc[6],
      rtc[2], rtc[1], rtc[0], rtc[5]);
  printUART1((unsigned int *) uart_buf);
  printUART2((unsigned int *) uart_buf);
  36:	f7ff bffe 	b.w	0 <printUART2>
  3a:	bf00      	nop
	...
  44:	0000007b 	.word	0x0000007b

Disassembly of section .text.printU:

00000000 <printU>:
printU():
D:\sunny\stm32\therme\Project\src/main.c:1108
 * @retval None
 */

void
printU(unsigned char chh)
{
   0:	4c07b510 	.word	0x4c07b510
   4:	4602      	mov	r2, r0
D:\sunny\stm32\therme\Project\src/main.c:1109
  sprintf(uart_buf, "%d\r\n", chh);
   6:	4907      	ldr	r1, [pc, #28]	; (24 <printU+0x24>)
   8:	4805      	ldr	r0, [pc, #20]	; (20 <printU+0x20>)
   a:	f7ff fffe 	bl	0 <sprintf>
D:\sunny\stm32\therme\Project\src/main.c:1110
  printUART1((unsigned int *) uart_buf);
   e:	4620      	mov	r0, r4
  10:	f7ff fffe 	bl	0 <printUART1>
D:\sunny\stm32\therme\Project\src/main.c:1111
  printUART2((unsigned int *) uart_buf);
  14:	4620      	mov	r0, r4
D:\sunny\stm32\therme\Project\src/main.c:1112
}
  16:	e8bd 4010 	ldmia.w	sp!, {r4, lr}
D:\sunny\stm32\therme\Project\src/main.c:1111
void
printU(unsigned char chh)
{
  sprintf(uart_buf, "%d\r\n", chh);
  printUART1((unsigned int *) uart_buf);
  printUART2((unsigned int *) uart_buf);
  1a:	f7ff bffe 	b.w	0 <printUART2>
  1e:	bf00      	nop
  20:	00000000 	.word	0x00000000
  24:	00000096 	.word	0x00000096

Disassembly of section .text.printsU:

00000000 <printsU>:
printsU():
D:\sunny\stm32\therme\Project\src/main.c:1115
}
void
printsU(int* chh, u8 ii)
{
   0:	b5f0      	push	{r4, r5, r6, r7, lr}
   2:	4604      	mov	r4, r0
   4:	b087      	sub	sp, #28
   6:	460f      	mov	r7, r1
D:\sunny\stm32\therme\Project\src/main.c:1117
  int i;
  for (i = 0; i < ii; i++)
   8:	4606      	mov	r6, r0
   a:	2500      	movs	r5, #0
   c:	e009      	b.n	22 <printsU+0x22>
D:\sunny\stm32\therme\Project\src/main.c:1119
    {
      sprintf(uart_buf, "%d:", chh[i]);
   e:	4912      	ldr	r1, [pc, #72]	; (58 <printsU+0x58>)
  10:	f856 2b04 	ldr.w	r2, [r6], #4
  14:	4811      	ldr	r0, [pc, #68]	; (48 <sprintf+0x48>)
  16:	f7ff fffe 	bl	0 <sprintf>
D:\sunny\stm32\therme\Project\src/main.c:1120
      printUART2((unsigned int *) uart_buf);
  1a:	4810      	ldr	r0, [pc, #64]	; (44 <printUART2+0x44>)
  1c:	f7ff fffe 	bl	0 <printUART2>
D:\sunny\stm32\therme\Project\src/main.c:1117
}
void
printsU(int* chh, u8 ii)
{
  int i;
  for (i = 0; i < ii; i++)
  20:	3501      	adds	r5, #1
  22:	42bd      	cmp	r5, r7
  24:	dbf3      	blt.n	e <printsU+0xe>
D:\sunny\stm32\therme\Project\src/main.c:1123
    {
      sprintf(uart_buf, "%d:", chh[i]);
      printUART2((unsigned int *) uart_buf);

    }
  sprintf(uart_buf, "\r\n");
  26:	490e      	ldr	r1, [pc, #56]	; (60 <printsU+0x60>)
  28:	480c      	ldr	r0, [pc, #48]	; (5c <printsU+0x5c>)
  2a:	f7ff fffe 	bl	0 <strcpy>
D:\sunny\stm32\therme\Project\src/main.c:1126
  //printUART2((unsigned int *)uart_buf);

  sprintf(ubuff1, "%i:%i:%i:%i:%i:%i:%i:%i:\r\n", chh[0], chh[1], chh[2],
  2e:	68a3      	ldr	r3, [r4, #8]
  30:	490c      	ldr	r1, [pc, #48]	; (64 <printsU+0x64>)
  32:	9300      	str	r3, [sp, #0]
  34:	68e3      	ldr	r3, [r4, #12]
  36:	6822      	ldr	r2, [r4, #0]
  38:	9301      	str	r3, [sp, #4]
  3a:	6923      	ldr	r3, [r4, #16]
  3c:	480a      	ldr	r0, [pc, #40]	; (68 <printsU+0x68>)
  3e:	9302      	str	r3, [sp, #8]
  40:	6963      	ldr	r3, [r4, #20]
  42:	9303      	str	r3, [sp, #12]
  44:	69a3      	ldr	r3, [r4, #24]
  46:	9304      	str	r3, [sp, #16]
  48:	69e3      	ldr	r3, [r4, #28]
  4a:	9305      	str	r3, [sp, #20]
  4c:	6863      	ldr	r3, [r4, #4]
  4e:	f7ff fffe 	bl	0 <sprintf>
D:\sunny\stm32\therme\Project\src/main.c:1129
      chh[3], chh[4], chh[5], chh[6], chh[7]);

}
  52:	b007      	add	sp, #28
  54:	bdf0      	pop	{r4, r5, r6, r7, pc}
  56:	bf00      	nop
  58:	0000009b 	.word	0x0000009b
  5c:	00000000 	.word	0x00000000
  60:	0000009f 	.word	0x0000009f
  64:	000000a2 	.word	0x000000a2
  68:	00000000 	.word	0x00000000

Disassembly of section .text.Delay1:

00000000 <Delay1>:
Delay1():
D:\sunny\stm32\therme\Project\src/main.c:1134
void
Delay1(uint32_t nTime)
{
  /* Capture the current local time */
  ocalTime1 = 0;
   0:	22004b03 	.word	0x22004b03
   4:	601a      	str	r2, [r3, #0]
D:\sunny\stm32\therme\Project\src/main.c:1137

  /* wait until the desired delay finish */
  while (ocalTime1 < nTime)
   6:	681a      	ldr	r2, [r3, #0]
   8:	4282      	cmp	r2, r0
   a:	d3fc      	bcc.n	6 <Delay1+0x6>
D:\sunny\stm32\therme\Project\src/main.c:1142
    {

    }

}
   c:	4770      	bx	lr
   e:	bf00      	nop
  10:	00000000 	.word	0x00000000

Disassembly of section .text.Delay:

00000000 <Delay>:
Delay():
D:\sunny\stm32\therme\Project\src/main.c:1148

void
Delay(uint32_t nCount)
{
  /* Capture the current local time */
  timingdelay = ocalTime + nCount;
   0:	4b04      	ldr	r3, [pc, #16]	; (14 <Delay+0x14>)
   2:	4905      	ldr	r1, [pc, #20]	; (18 <Delay+0x18>)
   4:	685a      	ldr	r2, [r3, #4]
   6:	1882      	adds	r2, r0, r2
   8:	600a      	str	r2, [r1, #0]
D:\sunny\stm32\therme\Project\src/main.c:1151

  /* wait until the desired delay finish */
  while (timingdelay > ocalTime)
   a:	6859      	ldr	r1, [r3, #4]
   c:	428a      	cmp	r2, r1
   e:	d8fc      	bhi.n	a <Delay+0xa>
D:\sunny\stm32\therme\Project\src/main.c:1155
    {

    }
}
  10:	4770      	bx	lr
  12:	bf00      	nop
	...

Disassembly of section .text.Time_Update:

00000000 <Time_Update>:
Time_Update():
D:\sunny\stm32\therme\Project\src/main.c:1165
 * @retval None
 */
void
Time_Update(void)
{
  ocalTime += SYSTEMTICK_PERIOD_MS;
   0:	4b07      	ldr	r3, [pc, #28]	; (20 <Time_Update+0x20>)
   2:	685a      	ldr	r2, [r3, #4]
   4:	320a      	adds	r2, #10
   6:	605a      	str	r2, [r3, #4]
D:\sunny\stm32\therme\Project\src/main.c:1166
  ocalTime1 += SYSTEMTICK_PERIOD_MS;
   8:	681a      	ldr	r2, [r3, #0]
   a:	320a      	adds	r2, #10
   c:	601a      	str	r2, [r3, #0]
D:\sunny\stm32\therme\Project\src/main.c:1167
  octime++;
   e:	689a      	ldr	r2, [r3, #8]
  10:	3201      	adds	r2, #1
  12:	609a      	str	r2, [r3, #8]
D:\sunny\stm32\therme\Project\src/main.c:1168
  del_ds++;
  14:	4b03      	ldr	r3, [pc, #12]	; (24 <Time_Update+0x24>)
  16:	881a      	ldrh	r2, [r3, #0]
  18:	3201      	adds	r2, #1
  1a:	801a      	strh	r2, [r3, #0]
D:\sunny\stm32\therme\Project\src/main.c:1171
  
    /* Reload IWDG counter */
  IWDG_ReloadCounter();
  1c:	f7ff bffe 	b.w	0 <IWDG_ReloadCounter>
	...

Disassembly of section .text.time_cal:

00000000 <time_cal>:
time_cal():
D:\sunny\stm32\therme\Project\src/main.c:1179
unsigned char tii;
void
time_cal(void)
{
  int i;
  if (octime > 100) //120
   0:	4b73      	ldr	r3, [pc, #460]	; (1d0 <time_cal+0x1d0>)
D:\sunny\stm32\therme\Project\src/main.c:1177
  
}
unsigned char tii;
void
time_cal(void)
{
   2:	b5f0      	push	{r4, r5, r6, r7, lr}
D:\sunny\stm32\therme\Project\src/main.c:1179
  int i;
  if (octime > 100) //120
   4:	689a      	ldr	r2, [r3, #8]
   6:	461c      	mov	r4, r3
   8:	2a64      	cmp	r2, #100	; 0x64
   a:	f240 80c1 	bls.w	190 <time_cal+0x190>
D:\sunny\stm32\therme\Project\src/main.c:1182
    {
	
			if(tii++ >= 60)
   e:	4b71      	ldr	r3, [pc, #452]	; (1d4 <time_cal+0x1d4>)
  10:	781a      	ldrb	r2, [r3, #0]
  12:	1c51      	adds	r1, r2, #1
  14:	2a3b      	cmp	r2, #59	; 0x3b
  16:	7019      	strb	r1, [r3, #0]
  18:	d90c      	bls.n	34 <time_cal+0x34>
D:\sunny\stm32\therme\Project\src/main.c:1184
			{
				if(err_com == 1)
  1a:	4a6f      	ldr	r2, [pc, #444]	; (1d8 <time_cal+0x1d8>)
  1c:	7811      	ldrb	r1, [r2, #0]
  1e:	2901      	cmp	r1, #1
  20:	d106      	bne.n	30 <time_cal+0x30>
D:\sunny\stm32\therme\Project\src/main.c:1186
				{
					delay_com_start--;
  22:	486e      	ldr	r0, [pc, #440]	; (1dc <time_cal+0x1dc>)
  24:	6801      	ldr	r1, [r0, #0]
  26:	3901      	subs	r1, #1
  28:	6001      	str	r1, [r0, #0]
D:\sunny\stm32\therme\Project\src/main.c:1187
					if(delay_com_start <= 0)
  2a:	b909      	cbnz	r1, 30 <time_cal+0x30>
D:\sunny\stm32\therme\Project\src/main.c:1188
					err_com = 2;
  2c:	3102      	adds	r1, #2
  2e:	7011      	strb	r1, [r2, #0]
D:\sunny\stm32\therme\Project\src/main.c:1193
				}
				
				//hc_open(server,"test.php?v=123456789012345678901234567890123456789012345678901234567890","p=32",page_recv);
				
				tii=0;
  30:	2200      	movs	r2, #0
  32:	701a      	strb	r2, [r3, #0]
D:\sunny\stm32\therme\Project\src/main.c:1199
			}
		

		
		
      octime = 0;
  34:	2300      	movs	r3, #0
  36:	60a3      	str	r3, [r4, #8]
D:\sunny\stm32\therme\Project\src/main.c:1202
      for (i = 0; i < 5; i++)
        {
          if (delay_fin[i] == 2)
  38:	4869      	ldr	r0, [pc, #420]	; (1e0 <time_cal+0x1e0>)
  3a:	6802      	ldr	r2, [r0, #0]
  3c:	5cd2      	ldrb	r2, [r2, r3]
  3e:	2a02      	cmp	r2, #2
  40:	f040 80a2 	bne.w	188 <time_cal+0x188>
D:\sunny\stm32\therme\Project\src/main.c:1204
            {
              if (dels[i] > 0)
  44:	4a67      	ldr	r2, [pc, #412]	; (1e4 <time_cal+0x1e4>)
  46:	4c68      	ldr	r4, [pc, #416]	; (1e8 <time_cal+0x1e8>)
  48:	6811      	ldr	r1, [r2, #0]
  4a:	5ccd      	ldrb	r5, [r1, r3]
  4c:	2d00      	cmp	r5, #0
  4e:	d041      	beq.n	d4 <time_cal+0xd4>
D:\sunny\stm32\therme\Project\src/main.c:1206
                {
                  dels[i]--;
  50:	3d01      	subs	r5, #1
  52:	54cd      	strb	r5, [r1, r3]
D:\sunny\stm32\therme\Project\src/main.c:1207
                  if (delm[i] > 0 && dels[i] <= 0)
  54:	4d65      	ldr	r5, [pc, #404]	; (1ec <time_cal+0x1ec>)
  56:	6829      	ldr	r1, [r5, #0]
  58:	18ce      	adds	r6, r1, r3
  5a:	5cc9      	ldrb	r1, [r1, r3]
  5c:	b141      	cbz	r1, 70 <time_cal+0x70>
  5e:	6817      	ldr	r7, [r2, #0]
  60:	5cff      	ldrb	r7, [r7, r3]
  62:	b92f      	cbnz	r7, 70 <time_cal+0x70>
D:\sunny\stm32\therme\Project\src/main.c:1209
                    {
                      delm[i]--;
  64:	3901      	subs	r1, #1
  66:	7031      	strb	r1, [r6, #0]
D:\sunny\stm32\therme\Project\src/main.c:1210
                      dels[i] = 59;
  68:	6811      	ldr	r1, [r2, #0]
  6a:	203b      	movs	r0, #59	; 0x3b
  6c:	54c8      	strb	r0, [r1, r3]
  6e:	e031      	b.n	d4 <time_cal+0xd4>
D:\sunny\stm32\therme\Project\src/main.c:1212
                    }
                  else if (delh[i] > 0 && delm[i] <= 0)
  70:	4e5f      	ldr	r6, [pc, #380]	; (1f0 <time_cal+0x1f0>)
  72:	6836      	ldr	r6, [r6, #0]
  74:	18f7      	adds	r7, r6, r3
  76:	5cf6      	ldrb	r6, [r6, r3]
  78:	b146      	cbz	r6, 8c <time_cal+0x8c>
  7a:	2900      	cmp	r1, #0
  7c:	d12a      	bne.n	d4 <time_cal+0xd4>
D:\sunny\stm32\therme\Project\src/main.c:1214
                    {
                      delh[i]--;
  7e:	3e01      	subs	r6, #1
  80:	703e      	strb	r6, [r7, #0]
D:\sunny\stm32\therme\Project\src/main.c:1215
                      delm[i] = 59;
  82:	6828      	ldr	r0, [r5, #0]
  84:	313b      	adds	r1, #59	; 0x3b
  86:	54c1      	strb	r1, [r0, r3]
D:\sunny\stm32\therme\Project\src/main.c:1216
                      dels[i] = 59;
  88:	6810      	ldr	r0, [r2, #0]
  8a:	e006      	b.n	9a <time_cal+0x9a>
D:\sunny\stm32\therme\Project\src/main.c:1218
                    }
                  else if (delh[i] <= 0 && delm[i] <= 0 && dels[i] <= 0)
  8c:	bb11      	cbnz	r1, d4 <time_cal+0xd4>
  8e:	6815      	ldr	r5, [r2, #0]
  90:	5ced      	ldrb	r5, [r5, r3]
  92:	b9fd      	cbnz	r5, d4 <time_cal+0xd4>
D:\sunny\stm32\therme\Project\src/main.c:1220
                    {
                      if (i == 1)
  94:	2b01      	cmp	r3, #1
  96:	d102      	bne.n	9e <time_cal+0x9e>
D:\sunny\stm32\therme\Project\src/main.c:1221
                        delay_fin[i] = 0;
  98:	6800      	ldr	r0, [r0, #0]
  9a:	54c1      	strb	r1, [r0, r3]
  9c:	e01a      	b.n	d4 <time_cal+0xd4>
D:\sunny\stm32\therme\Project\src/main.c:1222
                      else if (i == 2)
  9e:	2b02      	cmp	r3, #2
  a0:	d10e      	bne.n	c0 <time_cal+0xc0>
D:\sunny\stm32\therme\Project\src/main.c:1224
                        {
                          delay_fin[i] = 3;
  a2:	6801      	ldr	r1, [r0, #0]
  a4:	2003      	movs	r0, #3
  a6:	54c8      	strb	r0, [r1, r3]
D:\sunny\stm32\therme\Project\src/main.c:1225
                          if (sdoor == 8 || sdoor == 11)
  a8:	7821      	ldrb	r1, [r4, #0]
  aa:	2908      	cmp	r1, #8
  ac:	d001      	beq.n	b2 <time_cal+0xb2>
  ae:	290b      	cmp	r1, #11
  b0:	d110      	bne.n	d4 <time_cal+0xd4>
D:\sunny\stm32\therme\Project\src/main.c:1227
                            {
                              sdoor = 9;
  b2:	2109      	movs	r1, #9
  b4:	7021      	strb	r1, [r4, #0]
D:\sunny\stm32\therme\Project\src/main.c:1228
                              buz_off;
  b6:	494f      	ldr	r1, [pc, #316]	; (1f4 <time_cal+0x1f4>)
  b8:	f44f 4000 	mov.w	r0, #32768	; 0x8000
  bc:	6148      	str	r0, [r1, #20]
  be:	e009      	b.n	d4 <time_cal+0xd4>
D:\sunny\stm32\therme\Project\src/main.c:1231
                            }
                        }
                      else if (i == 3)
  c0:	2b03      	cmp	r3, #3
  c2:	d102      	bne.n	ca <time_cal+0xca>
D:\sunny\stm32\therme\Project\src/main.c:1233
                        {
                          delay_fin[i] = 3;
  c4:	6801      	ldr	r1, [r0, #0]
  c6:	54cb      	strb	r3, [r1, r3]
  c8:	e004      	b.n	d4 <time_cal+0xd4>
D:\sunny\stm32\therme\Project\src/main.c:1237
                        }
                      else
                        {
                          delay_fin[i] = 1;
  ca:	6800      	ldr	r0, [r0, #0]
  cc:	2501      	movs	r5, #1
  ce:	54c5      	strb	r5, [r0, r3]
D:\sunny\stm32\therme\Project\src/main.c:1238
						  def = 0;
  d0:	4849      	ldr	r0, [pc, #292]	; (1f8 <time_cal+0x1f8>)
  d2:	7001      	strb	r1, [r0, #0]
D:\sunny\stm32\therme\Project\src/main.c:1247

                    }

                }

              if (sdoor >= 9 && i == 2)
  d4:	7821      	ldrb	r1, [r4, #0]
  d6:	2908      	cmp	r1, #8
  d8:	d956      	bls.n	188 <time_cal+0x188>
  da:	2b02      	cmp	r3, #2
  dc:	d154      	bne.n	188 <time_cal+0x188>
D:\sunny\stm32\therme\Project\src/main.c:1249
                {
                  if (dels[i] == 55)
  de:	6812      	ldr	r2, [r2, #0]
  e0:	7891      	ldrb	r1, [r2, #2]
  e2:	2937      	cmp	r1, #55	; 0x37
  e4:	d103      	bne.n	ee <time_cal+0xee>
D:\sunny\stm32\therme\Project\src/main.c:1250
                    buz_on;
  e6:	4943      	ldr	r1, [pc, #268]	; (1f4 <time_cal+0x1f4>)
  e8:	f44f 4000 	mov.w	r0, #32768	; 0x8000
  ec:	6108      	str	r0, [r1, #16]
D:\sunny\stm32\therme\Project\src/main.c:1251
                  if (dels[i] == 54)
  ee:	7891      	ldrb	r1, [r2, #2]
  f0:	2936      	cmp	r1, #54	; 0x36
  f2:	d103      	bne.n	fc <time_cal+0xfc>
D:\sunny\stm32\therme\Project\src/main.c:1252
                    buz_off;
  f4:	493f      	ldr	r1, [pc, #252]	; (1f4 <time_cal+0x1f4>)
  f6:	f44f 4000 	mov.w	r0, #32768	; 0x8000
  fa:	6148      	str	r0, [r1, #20]
D:\sunny\stm32\therme\Project\src/main.c:1254

                  if (dels[i] == 45)
  fc:	7891      	ldrb	r1, [r2, #2]
  fe:	292d      	cmp	r1, #45	; 0x2d
 100:	d103      	bne.n	10a <time_cal+0x10a>
D:\sunny\stm32\therme\Project\src/main.c:1255
                    buz_on;
 102:	493c      	ldr	r1, [pc, #240]	; (1f4 <time_cal+0x1f4>)
 104:	f44f 4000 	mov.w	r0, #32768	; 0x8000
 108:	6108      	str	r0, [r1, #16]
D:\sunny\stm32\therme\Project\src/main.c:1256
                  if (dels[i] == 44)
 10a:	7891      	ldrb	r1, [r2, #2]
 10c:	292c      	cmp	r1, #44	; 0x2c
 10e:	d103      	bne.n	118 <time_cal+0x118>
D:\sunny\stm32\therme\Project\src/main.c:1257
                    buz_off;
 110:	4938      	ldr	r1, [pc, #224]	; (1f4 <time_cal+0x1f4>)
 112:	f44f 4000 	mov.w	r0, #32768	; 0x8000
 116:	6148      	str	r0, [r1, #20]
D:\sunny\stm32\therme\Project\src/main.c:1259

                  if (dels[i] == 35)
 118:	7891      	ldrb	r1, [r2, #2]
 11a:	2923      	cmp	r1, #35	; 0x23
 11c:	d103      	bne.n	126 <time_cal+0x126>
D:\sunny\stm32\therme\Project\src/main.c:1260
                    buz_on;
 11e:	4935      	ldr	r1, [pc, #212]	; (1f4 <time_cal+0x1f4>)
 120:	f44f 4000 	mov.w	r0, #32768	; 0x8000
 124:	6108      	str	r0, [r1, #16]
D:\sunny\stm32\therme\Project\src/main.c:1261
                  if (dels[i] == 34)
 126:	7891      	ldrb	r1, [r2, #2]
 128:	2922      	cmp	r1, #34	; 0x22
 12a:	d103      	bne.n	134 <time_cal+0x134>
D:\sunny\stm32\therme\Project\src/main.c:1262
                    buz_off;
 12c:	4931      	ldr	r1, [pc, #196]	; (1f4 <time_cal+0x1f4>)
 12e:	f44f 4000 	mov.w	r0, #32768	; 0x8000
 132:	6148      	str	r0, [r1, #20]
D:\sunny\stm32\therme\Project\src/main.c:1264

                  if (dels[i] == 25)
 134:	7891      	ldrb	r1, [r2, #2]
 136:	2919      	cmp	r1, #25
 138:	d103      	bne.n	142 <time_cal+0x142>
D:\sunny\stm32\therme\Project\src/main.c:1265
                    buz_on;
 13a:	492e      	ldr	r1, [pc, #184]	; (1f4 <time_cal+0x1f4>)
 13c:	f44f 4000 	mov.w	r0, #32768	; 0x8000
 140:	6108      	str	r0, [r1, #16]
D:\sunny\stm32\therme\Project\src/main.c:1266
                  if (dels[i] == 24)
 142:	7891      	ldrb	r1, [r2, #2]
 144:	2918      	cmp	r1, #24
 146:	d103      	bne.n	150 <time_cal+0x150>
D:\sunny\stm32\therme\Project\src/main.c:1267
                    buz_off;
 148:	492a      	ldr	r1, [pc, #168]	; (1f4 <time_cal+0x1f4>)
 14a:	f44f 4000 	mov.w	r0, #32768	; 0x8000
 14e:	6148      	str	r0, [r1, #20]
D:\sunny\stm32\therme\Project\src/main.c:1269

                  if (dels[i] == 15)
 150:	7891      	ldrb	r1, [r2, #2]
 152:	290f      	cmp	r1, #15
 154:	d103      	bne.n	15e <time_cal+0x15e>
D:\sunny\stm32\therme\Project\src/main.c:1270
                    buz_on;
 156:	4927      	ldr	r1, [pc, #156]	; (1f4 <time_cal+0x1f4>)
 158:	f44f 4000 	mov.w	r0, #32768	; 0x8000
 15c:	6108      	str	r0, [r1, #16]
D:\sunny\stm32\therme\Project\src/main.c:1271
                  if (dels[i] == 14)
 15e:	7891      	ldrb	r1, [r2, #2]
 160:	290e      	cmp	r1, #14
 162:	d103      	bne.n	16c <time_cal+0x16c>
D:\sunny\stm32\therme\Project\src/main.c:1272
                    buz_off;
 164:	4923      	ldr	r1, [pc, #140]	; (1f4 <time_cal+0x1f4>)
 166:	f44f 4000 	mov.w	r0, #32768	; 0x8000
 16a:	6148      	str	r0, [r1, #20]
D:\sunny\stm32\therme\Project\src/main.c:1274

                  if (dels[i] == 5)
 16c:	7891      	ldrb	r1, [r2, #2]
 16e:	2905      	cmp	r1, #5
 170:	d103      	bne.n	17a <time_cal+0x17a>
D:\sunny\stm32\therme\Project\src/main.c:1275
                    buz_on;
 172:	4920      	ldr	r1, [pc, #128]	; (1f4 <time_cal+0x1f4>)
 174:	f44f 4000 	mov.w	r0, #32768	; 0x8000
 178:	6108      	str	r0, [r1, #16]
D:\sunny\stm32\therme\Project\src/main.c:1276
                  if (dels[i] == 4)
 17a:	7892      	ldrb	r2, [r2, #2]
 17c:	2a04      	cmp	r2, #4
 17e:	d103      	bne.n	188 <time_cal+0x188>
D:\sunny\stm32\therme\Project\src/main.c:1277
                    buz_off;
 180:	4a1c      	ldr	r2, [pc, #112]	; (1f4 <time_cal+0x1f4>)
 182:	f44f 4100 	mov.w	r1, #32768	; 0x8000
 186:	6151      	str	r1, [r2, #20]
D:\sunny\stm32\therme\Project\src/main.c:1200
		

		
		
      octime = 0;
      for (i = 0; i < 5; i++)
 188:	3301      	adds	r3, #1
 18a:	2b05      	cmp	r3, #5
 18c:	f47f af54 	bne.w	38 <time_cal+0x38>
D:\sunny\stm32\therme\Project\src/main.c:1284

            }
        }
		
    }
		if(delay_button > 8)
 190:	4a1a      	ldr	r2, [pc, #104]	; (1fc <time_cal+0x1fc>)
 192:	7813      	ldrb	r3, [r2, #0]
 194:	2b08      	cmp	r3, #8
 196:	d911      	bls.n	1bc <time_cal+0x1bc>
D:\sunny\stm32\therme\Project\src/main.c:1286
		{
			if(start == 1)
 198:	4b19      	ldr	r3, [pc, #100]	; (200 <time_cal+0x200>)
 19a:	7819      	ldrb	r1, [r3, #0]
 19c:	2901      	cmp	r1, #1
 19e:	d103      	bne.n	1a8 <time_cal+0x1a8>
D:\sunny\stm32\therme\Project\src/main.c:1288
			{
				start = 3;
 1a0:	3102      	adds	r1, #2
 1a2:	7019      	strb	r1, [r3, #0]
D:\sunny\stm32\therme\Project\src/main.c:1289
				mode_dis = 5;
 1a4:	3102      	adds	r1, #2
 1a6:	e004      	b.n	1b2 <time_cal+0x1b2>
D:\sunny\stm32\therme\Project\src/main.c:1291
			}				
			else if(start == 0)
 1a8:	7819      	ldrb	r1, [r3, #0]
 1aa:	b921      	cbnz	r1, 1b6 <time_cal+0x1b6>
D:\sunny\stm32\therme\Project\src/main.c:1293
			{
				start = 5;
 1ac:	3105      	adds	r1, #5
 1ae:	7019      	strb	r1, [r3, #0]
D:\sunny\stm32\therme\Project\src/main.c:1294
				mode_dis = 4;
 1b0:	3901      	subs	r1, #1
 1b2:	4b14      	ldr	r3, [pc, #80]	; (204 <time_cal+0x204>)
 1b4:	7019      	strb	r1, [r3, #0]
D:\sunny\stm32\therme\Project\src/main.c:1296
			}				
			delay_button=0;
 1b6:	2300      	movs	r3, #0
 1b8:	7013      	strb	r3, [r2, #0]
 1ba:	bdf0      	pop	{r4, r5, r6, r7, pc}
D:\sunny\stm32\therme\Project\src/main.c:1299
			
		}
		else if(delay_button>2)
 1bc:	2b02      	cmp	r3, #2
 1be:	d905      	bls.n	1cc <time_cal+0x1cc>
D:\sunny\stm32\therme\Project\src/main.c:1301
		{
			mode_dis = 1;
 1c0:	4b10      	ldr	r3, [pc, #64]	; (204 <time_cal+0x204>)
 1c2:	2201      	movs	r2, #1
 1c4:	701a      	strb	r2, [r3, #0]
D:\sunny\stm32\therme\Project\src/main.c:1302
			dis_delay=0;
 1c6:	4b10      	ldr	r3, [pc, #64]	; (208 <time_cal+0x208>)
 1c8:	3a01      	subs	r2, #1
 1ca:	701a      	strb	r2, [r3, #0]
 1cc:	bdf0      	pop	{r4, r5, r6, r7, pc}
 1ce:	bf00      	nop
	...
 1f4:	40011800 	.word	0x40011800
	...

Disassembly of section .text.System_Periodic_Handle:

00000000 <System_Periodic_Handle>:
System_Periodic_Handle():
D:\sunny\stm32\therme\Project\src/main.c:1315
 * @retval None
 */

void
System_Periodic_Handle(void)
{
   0:	4c04b510 	.word	0x4c04b510
D:\sunny\stm32\therme\Project\src/main.c:1318
  /* Update the LCD display and the LEDs status */
  /* Manage the IP address setting */
  Display_Periodic_Handle(ocalTime);
   4:	6860      	ldr	r0, [r4, #4]
   6:	f7ff fffe 	bl	0 <Display_Periodic_Handle>
D:\sunny\stm32\therme\Project\src/main.c:1321

  /* LwIP periodic services are done here */
  LwIP_Periodic_Handle(ocalTime);
   a:	6860      	ldr	r0, [r4, #4]
D:\sunny\stm32\therme\Project\src/main.c:1323

}
   c:	e8bd 4010 	ldmia.w	sp!, {r4, lr}
D:\sunny\stm32\therme\Project\src/main.c:1321
  /* Update the LCD display and the LEDs status */
  /* Manage the IP address setting */
  Display_Periodic_Handle(ocalTime);

  /* LwIP periodic services are done here */
  LwIP_Periodic_Handle(ocalTime);
  10:	f7ff bffe 	b.w	0 <LwIP_Periodic_Handle>
  14:	00000000 	.word	0x00000000

Disassembly of section .text.melloc_ar:

00000000 <melloc_ar>:
melloc_ar():
D:\sunny\stm32\therme\Project\src/main.c:1326

}
void
melloc_ar(void)
{
   0:	b508      	push	{r3, lr}
D:\sunny\stm32\therme\Project\src/main.c:1328

  delay_fin = (unsigned char*) malloc(10 * sizeof(unsigned char));
   2:	200a      	movs	r0, #10
   4:	f7ff fffe 	bl	0 <malloc>
   8:	4b08      	ldr	r3, [pc, #32]	; (2c <melloc_ar+0x2c>)
   a:	6018      	str	r0, [r3, #0]
D:\sunny\stm32\therme\Project\src/main.c:1329
  delh = (unsigned char*) malloc(10 * sizeof(unsigned char));
   c:	200a      	movs	r0, #10
   e:	f7ff fffe 	bl	0 <malloc>
  12:	4b07      	ldr	r3, [pc, #28]	; (30 <melloc_ar+0x30>)
  14:	6018      	str	r0, [r3, #0]
D:\sunny\stm32\therme\Project\src/main.c:1330
  delm = (unsigned char*) malloc(10 * sizeof(unsigned char));
  16:	200a      	movs	r0, #10
  18:	f7ff fffe 	bl	0 <malloc>
  1c:	4b05      	ldr	r3, [pc, #20]	; (34 <melloc_ar+0x34>)
  1e:	6018      	str	r0, [r3, #0]
D:\sunny\stm32\therme\Project\src/main.c:1331
  dels = (unsigned char*) malloc(10 * sizeof(unsigned char));
  20:	200a      	movs	r0, #10
  22:	f7ff fffe 	bl	0 <malloc>
  26:	4b04      	ldr	r3, [pc, #16]	; (38 <melloc_ar+0x38>)
  28:	6018      	str	r0, [r3, #0]
D:\sunny\stm32\therme\Project\src/main.c:1333

}
  2a:	bd08      	pop	{r3, pc}
	...

Disassembly of section .text.clear_delayfn:

00000000 <clear_delayfn>:
clear_delayfn():
D:\sunny\stm32\therme\Project\src/main.c:1336
void
clear_delayfn(void)
{
   0:	2300      	movs	r3, #0
D:\sunny\stm32\therme\Project\src/main.c:1340
  u8 i;
  for (i = 0; i < 10; i++)
    {
      delay_fin[i] = 0;
   2:	4a09      	ldr	r2, [pc, #36]	; (28 <clear_delayfn+0x28>)
   4:	6811      	ldr	r1, [r2, #0]
   6:	2200      	movs	r2, #0
   8:	54ca      	strb	r2, [r1, r3]
D:\sunny\stm32\therme\Project\src/main.c:1341
      delh[i] = 0;
   a:	4908      	ldr	r1, [pc, #32]	; (2c <clear_delayfn+0x2c>)
   c:	6809      	ldr	r1, [r1, #0]
   e:	54ca      	strb	r2, [r1, r3]
D:\sunny\stm32\therme\Project\src/main.c:1342
      delm[i] = 0;
  10:	4907      	ldr	r1, [pc, #28]	; (30 <clear_delayfn+0x30>)
  12:	6809      	ldr	r1, [r1, #0]
  14:	54ca      	strb	r2, [r1, r3]
D:\sunny\stm32\therme\Project\src/main.c:1343
      dels[i] = 0;
  16:	4907      	ldr	r1, [pc, #28]	; (34 <clear_delayfn+0x34>)
  18:	6809      	ldr	r1, [r1, #0]
  1a:	54ca      	strb	r2, [r1, r3]
  1c:	3301      	adds	r3, #1
D:\sunny\stm32\therme\Project\src/main.c:1338
}
void
clear_delayfn(void)
{
  u8 i;
  for (i = 0; i < 10; i++)
  1e:	2b0a      	cmp	r3, #10
  20:	d1ef      	bne.n	2 <clear_delayfn+0x2>
D:\sunny\stm32\therme\Project\src/main.c:1346
      delh[i] = 0;
      delm[i] = 0;
      dels[i] = 0;
    }

  modes = 0;
  22:	4b05      	ldr	r3, [pc, #20]	; (38 <clear_delayfn+0x38>)
  24:	701a      	strb	r2, [r3, #0]
D:\sunny\stm32\therme\Project\src/main.c:1348

}
  26:	4770      	bx	lr
	...

Disassembly of section .text.eemode:

00000000 <eemode>:
eemode():
D:\sunny\stm32\therme\Project\src/main.c:1672
}
void
eemode(unsigned char mods)
{
  //I2C_EE_BufferRead(eep_b,mods,40);
}
   0:	4770      	bx	lr

Disassembly of section .text.set_dat_o:

00000000 <set_dat_o>:
set_dat_o():
D:\sunny\stm32\therme\Project\src/main.c:1675
void
set_dat_o(unsigned char i)
{
   0:	b507      	push	{r0, r1, r2, lr}
D:\sunny\stm32\therme\Project\src/main.c:1676
  ds1302Port->BSRR = ds1302Dat;
   2:	4a0a      	ldr	r2, [pc, #40]	; (2c <set_dat_o+0x2c>)
   4:	f44f 4380 	mov.w	r3, #16384	; 0x4000
   8:	6113      	str	r3, [r2, #16]
D:\sunny\stm32\therme\Project\src/main.c:1679

  GPIO_InitTypeDef GPIO_InitStructure;
  GPIO_InitStructure.GPIO_Pin = ds1302Dat;
   a:	f8ad 3004 	strh.w	r3, [sp, #4]
D:\sunny\stm32\therme\Project\src/main.c:1680
  GPIO_InitStructure.GPIO_Speed = GPIO_Speed_50MHz;
   e:	2303      	movs	r3, #3
D:\sunny\stm32\therme\Project\src/main.c:1682

  if (i == 1)
  10:	2801      	cmp	r0, #1
D:\sunny\stm32\therme\Project\src/main.c:1680
{
  ds1302Port->BSRR = ds1302Dat;

  GPIO_InitTypeDef GPIO_InitStructure;
  GPIO_InitStructure.GPIO_Pin = ds1302Dat;
  GPIO_InitStructure.GPIO_Speed = GPIO_Speed_50MHz;
  12:	f88d 3006 	strb.w	r3, [sp, #6]
D:\sunny\stm32\therme\Project\src/main.c:1682

  if (i == 1)
  16:	d101      	bne.n	1c <set_dat_o+0x1c>
D:\sunny\stm32\therme\Project\src/main.c:1683
    GPIO_InitStructure.GPIO_Mode = GPIO_Mode_IN_FLOATING;
  18:	3301      	adds	r3, #1
  1a:	e000      	b.n	1e <set_dat_o+0x1e>
D:\sunny\stm32\therme\Project\src/main.c:1685
  else
    GPIO_InitStructure.GPIO_Mode = GPIO_Mode_Out_PP;
  1c:	2310      	movs	r3, #16
D:\sunny\stm32\therme\Project\src/main.c:1687

  GPIO_Init(ds1302Port, &GPIO_InitStructure);
  1e:	4803      	ldr	r0, [pc, #12]	; (2c <set_dat_o+0x2c>)
  20:	a901      	add	r1, sp, #4
D:\sunny\stm32\therme\Project\src/main.c:1685
  GPIO_InitStructure.GPIO_Speed = GPIO_Speed_50MHz;

  if (i == 1)
    GPIO_InitStructure.GPIO_Mode = GPIO_Mode_IN_FLOATING;
  else
    GPIO_InitStructure.GPIO_Mode = GPIO_Mode_Out_PP;
  22:	f88d 3007 	strb.w	r3, [sp, #7]
D:\sunny\stm32\therme\Project\src/main.c:1687

  GPIO_Init(ds1302Port, &GPIO_InitStructure);
  26:	f7ff fffe 	bl	0 <GPIO_Init>
D:\sunny\stm32\therme\Project\src/main.c:1688
}
  2a:	bd0e      	pop	{r1, r2, r3, pc}
  2c:	40011400 	.word	0x40011400

Disassembly of section .text.SendDat_1302:

00000000 <SendDat_1302>:
SendDat_1302():
D:\sunny\stm32\therme\Project\src/main.c:1692

void
SendDat_1302(u8 Dat)
{
   0:	b510      	push	{r4, lr}
   2:	2208      	movs	r2, #8
D:\sunny\stm32\therme\Project\src/main.c:1698
  u8 i;
  u8 cTmp;
//printU(Dat);
  for (i = 0; i < 8; i++)
    {
      ds1302Port->BRR = ds1302Clk;
   4:	4b09      	ldr	r3, [pc, #36]	; (2c <SendDat_1302+0x2c>)
   6:	f44f 5100 	mov.w	r1, #8192	; 0x2000
   a:	6159      	str	r1, [r3, #20]
D:\sunny\stm32\therme\Project\src/main.c:1703
      uDelay(1);

      cTmp = Dat & 0x01;

      if (cTmp == 0x01) //1
   c:	f010 0f01 	tst.w	r0, #1
  10:	460c      	mov	r4, r1
  12:	f44f 4180 	mov.w	r1, #16384	; 0x4000
D:\sunny\stm32\therme\Project\src/main.c:1704
        ds1302Port->BSRR = ds1302Dat;
  16:	bf14      	ite	ne
  18:	6119      	strne	r1, [r3, #16]
D:\sunny\stm32\therme\Project\src/main.c:1706
      else
        ds1302Port->BRR = ds1302Dat;
  1a:	6159      	streq	r1, [r3, #20]
D:\sunny\stm32\therme\Project\src/main.c:1711

      Dat >>= 1;
      uDelay(1);

      ds1302Port->BSRR = ds1302Clk;
  1c:	3a01      	subs	r2, #1
  1e:	b2d2      	uxtb	r2, r2
  20:	611c      	str	r4, [r3, #16]
D:\sunny\stm32\therme\Project\src/main.c:1696
SendDat_1302(u8 Dat)
{
  u8 i;
  u8 cTmp;
//printU(Dat);
  for (i = 0; i < 8; i++)
  22:	b10a      	cbz	r2, 28 <SendDat_1302+0x28>
D:\sunny\stm32\therme\Project\src/main.c:1708
      if (cTmp == 0x01) //1
        ds1302Port->BSRR = ds1302Dat;
      else
        ds1302Port->BRR = ds1302Dat;

      Dat >>= 1;
  24:	0840      	lsrs	r0, r0, #1
  26:	e7ed      	b.n	4 <SendDat_1302+0x4>
  28:	bd10      	pop	{r4, pc}
  2a:	bf00      	nop
  2c:	40011400 	.word	0x40011400

Disassembly of section .text.WriteByte_1302:

00000000 <WriteByte_1302>:
WriteByte_1302():
D:\sunny\stm32\therme\Project\src/main.c:1718
    }
}

void
WriteByte_1302(u8 CmdDat, u8 Num, u8 *pSend)
{
   0:	e92d 41f0 	stmdb	sp!, {r4, r5, r6, r7, r8, lr}
D:\sunny\stm32\therme\Project\src/main.c:1720
  u8 i = 0;
  ds1302Port->BRR = ds1302Rst;
   4:	4e12      	ldr	r6, [pc, #72]	; (50 <WriteByte_1302+0x50>)
D:\sunny\stm32\therme\Project\src/main.c:1721
  ds1302Port->BRR = ds1302Clk;
   6:	f44f 5300 	mov.w	r3, #8192	; 0x2000
D:\sunny\stm32\therme\Project\src/main.c:1720

void
WriteByte_1302(u8 CmdDat, u8 Num, u8 *pSend)
{
  u8 i = 0;
  ds1302Port->BRR = ds1302Rst;
   a:	f44f 4700 	mov.w	r7, #32768	; 0x8000
D:\sunny\stm32\therme\Project\src/main.c:1718
    }
}

void
WriteByte_1302(u8 CmdDat, u8 Num, u8 *pSend)
{
   e:	4604      	mov	r4, r0
D:\sunny\stm32\therme\Project\src/main.c:1720
  u8 i = 0;
  ds1302Port->BRR = ds1302Rst;
  10:	6177      	str	r7, [r6, #20]
D:\sunny\stm32\therme\Project\src/main.c:1723
  ds1302Port->BRR = ds1302Clk;

  set_dat_o(0);
  12:	2000      	movs	r0, #0
D:\sunny\stm32\therme\Project\src/main.c:1721
void
WriteByte_1302(u8 CmdDat, u8 Num, u8 *pSend)
{
  u8 i = 0;
  ds1302Port->BRR = ds1302Rst;
  ds1302Port->BRR = ds1302Clk;
  14:	6173      	str	r3, [r6, #20]
D:\sunny\stm32\therme\Project\src/main.c:1718
    }
}

void
WriteByte_1302(u8 CmdDat, u8 Num, u8 *pSend)
{
  16:	4690      	mov	r8, r2
  18:	460d      	mov	r5, r1
D:\sunny\stm32\therme\Project\src/main.c:1723
  u8 i = 0;
  ds1302Port->BRR = ds1302Rst;
  ds1302Port->BRR = ds1302Clk;

  set_dat_o(0);
  1a:	f7ff fffe 	bl	0 <WriteByte_1302>
D:\sunny\stm32\therme\Project\src/main.c:1726
  uDelay(1);
  //printU(100);
  ds1302Port->BSRR = ds1302Rst;
  1e:	6137      	str	r7, [r6, #16]
D:\sunny\stm32\therme\Project\src/main.c:1728
  uDelay(1);
  SendDat_1302(CmdDat);
  20:	4620      	mov	r0, r4
  22:	f7ff fffe 	bl	0 <WriteByte_1302>
  26:	4646      	mov	r6, r8
D:\sunny\stm32\therme\Project\src/main.c:1729
  for (i = 0; i < Num; i++)
  28:	2400      	movs	r4, #0
  2a:	e005      	b.n	38 <WriteByte_1302+0x38>
D:\sunny\stm32\therme\Project\src/main.c:1731
    {
      SendDat_1302(*(pSend + i));
  2c:	f816 0b01 	ldrb.w	r0, [r6], #1
  30:	f7ff fffe 	bl	0 <WriteByte_1302>
D:\sunny\stm32\therme\Project\src/main.c:1729
  uDelay(1);
  //printU(100);
  ds1302Port->BSRR = ds1302Rst;
  uDelay(1);
  SendDat_1302(CmdDat);
  for (i = 0; i < Num; i++)
  34:	3401      	adds	r4, #1
  36:	b2e4      	uxtb	r4, r4
  38:	42ac      	cmp	r4, r5
  3a:	d3f7      	bcc.n	2c <WriteByte_1302+0x2c>
D:\sunny\stm32\therme\Project\src/main.c:1734
    {
      SendDat_1302(*(pSend + i));
    }
  uDelay(1);
  ds1302Port->BRR = ds1302Rst;
  3c:	4b04      	ldr	r3, [pc, #16]	; (50 <WriteByte_1302+0x50>)
  3e:	f44f 4200 	mov.w	r2, #32768	; 0x8000
  42:	615a      	str	r2, [r3, #20]
D:\sunny\stm32\therme\Project\src/main.c:1736
  uDelay(1);
  ds1302Port->BRR = ds1302Clk;
  44:	f44f 5200 	mov.w	r2, #8192	; 0x2000
  48:	615a      	str	r2, [r3, #20]
D:\sunny\stm32\therme\Project\src/main.c:1737
}
  4a:	e8bd 81f0 	ldmia.w	sp!, {r4, r5, r6, r7, r8, pc}
  4e:	bf00      	nop
  50:	40011400 	.word	0x40011400

Disassembly of section .text.set_date:

00000000 <set_date>:
set_date():
D:\sunny\stm32\therme\Project\src/main.c:1089
{
  u8 i;

  u8 temp;
  //te[i]=((te[i]/10)<<4)|(te[i]%10);
	Ds1302SendBuf[7] = 33;
   0:	21214b0c 	.word	0x21214b0c
D:\sunny\stm32\therme\Project\src/main.c:1084
  printUART2((unsigned int *) uart_buf);

}
void
set_date(unsigned char *te)
{
   4:	b530      	push	{r4, r5, lr}
   6:	4602      	mov	r2, r0
D:\sunny\stm32\therme\Project\src/main.c:1089
  u8 i;

  u8 temp;
  //te[i]=((te[i]/10)<<4)|(te[i]%10);
	Ds1302SendBuf[7] = 33;
   8:	71d9      	strb	r1, [r3, #7]
D:\sunny\stm32\therme\Project\src/main.c:1083
  printUART1((unsigned int *) uart_buf);
  printUART2((unsigned int *) uart_buf);

}
void
set_date(unsigned char *te)
   a:	1dc5      	adds	r5, r0, #7
D:\sunny\stm32\therme\Project\src/main.c:1089
{
  u8 i;

  u8 temp;
  //te[i]=((te[i]/10)<<4)|(te[i]%10);
	Ds1302SendBuf[7] = 33;
   c:	4603      	mov	r3, r0
D:\sunny\stm32\therme\Project\src/main.c:1092
  for (i = 0; i < 7; i++)
    {
      temp = te[i] / 10;
   e:	781c      	ldrb	r4, [r3, #0]
  10:	200a      	movs	r0, #10
  12:	fbb4 f1f0 	udiv	r1, r4, r0
D:\sunny\stm32\therme\Project\src/main.c:1093
      te[i] = te[i] % 10 + temp * 16;
  16:	fb00 4011 	mls	r0, r0, r1, r4
  1a:	eb00 1101 	add.w	r1, r0, r1, lsl #4
  1e:	f803 1b01 	strb.w	r1, [r3], #1
D:\sunny\stm32\therme\Project\src/main.c:1090
  u8 i;

  u8 temp;
  //te[i]=((te[i]/10)<<4)|(te[i]%10);
	Ds1302SendBuf[7] = 33;
  for (i = 0; i < 7; i++)
  22:	42ab      	cmp	r3, r5
  24:	d1f3      	bne.n	e <set_date+0xe>
D:\sunny\stm32\therme\Project\src/main.c:1096
    {
      temp = te[i] / 10;
      te[i] = te[i] % 10 + temp * 16;
    }

  WriteByte_1302(WrMulti, 8, te);
  26:	20be      	movs	r0, #190	; 0xbe
  28:	2108      	movs	r1, #8
D:\sunny\stm32\therme\Project\src/main.c:1098

}
  2a:	e8bd 4030 	ldmia.w	sp!, {r4, r5, lr}
D:\sunny\stm32\therme\Project\src/main.c:1096
    {
      temp = te[i] / 10;
      te[i] = te[i] % 10 + temp * 16;
    }

  WriteByte_1302(WrMulti, 8, te);
  2e:	f7ff bffe 	b.w	0 <set_date>
  32:	bf00      	nop
  34:	00000000 	.word	0x00000000

Disassembly of section .text.RecByte_1302:

00000000 <RecByte_1302>:
RecByte_1302():
D:\sunny\stm32\therme\Project\src/main.c:1743

void
RecByte_1302(u8 CmdDat, u8 Num, u8 *pRec)
{
  u8 i, j, tmp, cTmp;
  ds1302Port->BRR = ds1302Rst;
   0:	4b1d      	ldr	r3, [pc, #116]	; (78 <RecByte_1302+0x78>)
D:\sunny\stm32\therme\Project\src/main.c:1741
  ds1302Port->BRR = ds1302Clk;
}

void
RecByte_1302(u8 CmdDat, u8 Num, u8 *pRec)
{
   2:	e92d 47f0 	stmdb	sp!, {r4, r5, r6, r7, r8, r9, sl, lr}
   6:	460c      	mov	r4, r1
   8:	4691      	mov	r9, r2
D:\sunny\stm32\therme\Project\src/main.c:1744
  u8 i, j, tmp, cTmp;
  ds1302Port->BRR = ds1302Rst;
  ds1302Port->BRR = ds1302Clk;
   a:	f44f 5100 	mov.w	r1, #8192	; 0x2000
D:\sunny\stm32\therme\Project\src/main.c:1743

void
RecByte_1302(u8 CmdDat, u8 Num, u8 *pRec)
{
  u8 i, j, tmp, cTmp;
  ds1302Port->BRR = ds1302Rst;
   e:	f44f 4200 	mov.w	r2, #32768	; 0x8000
  12:	615a      	str	r2, [r3, #20]
D:\sunny\stm32\therme\Project\src/main.c:1744
  ds1302Port->BRR = ds1302Clk;
  14:	6159      	str	r1, [r3, #20]
D:\sunny\stm32\therme\Project\src/main.c:1747
  uDelay(1);
  //printU(200);
  ds1302Port->BSRR = ds1302Rst;
  16:	611a      	str	r2, [r3, #16]
D:\sunny\stm32\therme\Project\src/main.c:1749
  uDelay(1);
  SendDat_1302(CmdDat); //????
  18:	f7ff fffe 	bl	0 <RecByte_1302>
D:\sunny\stm32\therme\Project\src/main.c:1750
  set_dat_o(1);
  1c:	2001      	movs	r0, #1
  1e:	f7ff fffe 	bl	0 <RecByte_1302>
D:\sunny\stm32\therme\Project\src/main.c:1751
  for (i = 0; i < Num; i++)
  22:	2500      	movs	r5, #0
  24:	e01a      	b.n	5c <RecByte_1302+0x5c>
  26:	2708      	movs	r7, #8
  28:	2600      	movs	r6, #0
D:\sunny\stm32\therme\Project\src/main.c:1756
    {
      tmp = 0x00;
      for (j = 0; j < 8; j++)
        {
          ds1302Port->BRR = ds1302Clk;
  2a:	f8df 804c 	ldr.w	r8, [pc, #76]	; 78 <RecByte_1302+0x78>
  2e:	f44f 5a00 	mov.w	sl, #8192	; 0x2000
  32:	f8c8 a014 	str.w	sl, [r8, #20]
D:\sunny\stm32\therme\Project\src/main.c:1759
          uDelay(1);

          cTmp = GPIO_ReadInputDataBit(ds1302Port, ds1302Dat);
  36:	4640      	mov	r0, r8
  38:	f44f 4180 	mov.w	r1, #16384	; 0x4000
  3c:	f7ff fffe 	bl	0 <GPIO_ReadInputDataBit>
D:\sunny\stm32\therme\Project\src/main.c:1761

          tmp = (cTmp << 7) | (tmp >> 1);
  40:	0876      	lsrs	r6, r6, #1
D:\sunny\stm32\therme\Project\src/main.c:1763

          ds1302Port->BSRR = ds1302Clk;
  42:	3f01      	subs	r7, #1
D:\sunny\stm32\therme\Project\src/main.c:1761
          ds1302Port->BRR = ds1302Clk;
          uDelay(1);

          cTmp = GPIO_ReadInputDataBit(ds1302Port, ds1302Dat);

          tmp = (cTmp << 7) | (tmp >> 1);
  44:	ea46 16c0 	orr.w	r6, r6, r0, lsl #7
D:\sunny\stm32\therme\Project\src/main.c:1763

          ds1302Port->BSRR = ds1302Clk;
  48:	b2ff      	uxtb	r7, r7
D:\sunny\stm32\therme\Project\src/main.c:1761
          ds1302Port->BRR = ds1302Clk;
          uDelay(1);

          cTmp = GPIO_ReadInputDataBit(ds1302Port, ds1302Dat);

          tmp = (cTmp << 7) | (tmp >> 1);
  4a:	b2f6      	uxtb	r6, r6
D:\sunny\stm32\therme\Project\src/main.c:1763

          ds1302Port->BSRR = ds1302Clk;
  4c:	f8c8 a010 	str.w	sl, [r8, #16]
D:\sunny\stm32\therme\Project\src/main.c:1754
  SendDat_1302(CmdDat); //????
  set_dat_o(1);
  for (i = 0; i < Num; i++)
    {
      tmp = 0x00;
      for (j = 0; j < 8; j++)
  50:	2f00      	cmp	r7, #0
  52:	d1ea      	bne.n	2a <RecByte_1302+0x2a>
D:\sunny\stm32\therme\Project\src/main.c:1751
  //printU(200);
  ds1302Port->BSRR = ds1302Rst;
  uDelay(1);
  SendDat_1302(CmdDat); //????
  set_dat_o(1);
  for (i = 0; i < Num; i++)
  54:	3501      	adds	r5, #1
D:\sunny\stm32\therme\Project\src/main.c:1766
          tmp = (cTmp << 7) | (tmp >> 1);

          ds1302Port->BSRR = ds1302Clk;
          uDelay(1);
        }
      *(pRec + i) = tmp;
  56:	f809 6b01 	strb.w	r6, [r9], #1
D:\sunny\stm32\therme\Project\src/main.c:1751
  //printU(200);
  ds1302Port->BSRR = ds1302Rst;
  uDelay(1);
  SendDat_1302(CmdDat); //????
  set_dat_o(1);
  for (i = 0; i < Num; i++)
  5a:	b2ed      	uxtb	r5, r5
  5c:	42a5      	cmp	r5, r4
  5e:	d3e2      	bcc.n	26 <RecByte_1302+0x26>
D:\sunny\stm32\therme\Project\src/main.c:1770
        }
      *(pRec + i) = tmp;
      //	printU(tmp);
    }
  uDelay(1);
  ds1302Port->BRR = ds1302Rst;
  60:	4b05      	ldr	r3, [pc, #20]	; (78 <RecByte_1302+0x78>)
  62:	f44f 4200 	mov.w	r2, #32768	; 0x8000
  66:	615a      	str	r2, [r3, #20]
D:\sunny\stm32\therme\Project\src/main.c:1773
  uDelay(1);
  ds1302Port->BRR = ds1302Clk;
  set_dat_o(0);
  68:	2000      	movs	r0, #0
D:\sunny\stm32\therme\Project\src/main.c:1772
      //	printU(tmp);
    }
  uDelay(1);
  ds1302Port->BRR = ds1302Rst;
  uDelay(1);
  ds1302Port->BRR = ds1302Clk;
  6a:	f44f 5200 	mov.w	r2, #8192	; 0x2000
  6e:	615a      	str	r2, [r3, #20]
D:\sunny\stm32\therme\Project\src/main.c:1774
  set_dat_o(0);
}
  70:	e8bd 47f0 	ldmia.w	sp!, {r4, r5, r6, r7, r8, r9, sl, lr}
D:\sunny\stm32\therme\Project\src/main.c:1773
    }
  uDelay(1);
  ds1302Port->BRR = ds1302Rst;
  uDelay(1);
  ds1302Port->BRR = ds1302Clk;
  set_dat_o(0);
  74:	f7ff bffe 	b.w	0 <RecByte_1302>
  78:	40011400 	.word	0x40011400

Disassembly of section .text.Read_RTC:

00000000 <Read_RTC>:
Read_RTC():
D:\sunny\stm32\therme\Project\src/main.c:992

}

void
Read_RTC(void)
{
   0:	20bfb530 	.word	0x20bfb530
D:\sunny\stm32\therme\Project\src/main.c:995
  u8 i;
  //DS1307_Read(rtc);
  RecByte_1302(RdMulti, 8, rtc);
   4:	2108      	movs	r1, #8
D:\sunny\stm32\therme\Project\src/main.c:992

}

void
Read_RTC(void)
{
   6:	b089      	sub	sp, #36	; 0x24
D:\sunny\stm32\therme\Project\src/main.c:995
  u8 i;
  //DS1307_Read(rtc);
  RecByte_1302(RdMulti, 8, rtc);
   8:	4a14      	ldr	r2, [pc, #80]	; (5c <Read_RTC+0x5c>)
   a:	f7ff fffe 	bl	0 <Read_RTC>
   e:	4b13      	ldr	r3, [pc, #76]	; (5c <Read_RTC+0x5c>)
D:\sunny\stm32\therme\Project\src/main.c:991
  }	  

}

void
Read_RTC(void)
  10:	1dd8      	adds	r0, r3, #7
  12:	4619      	mov	r1, r3
D:\sunny\stm32\therme\Project\src/main.c:998
  u8 i;
  //DS1307_Read(rtc);
  RecByte_1302(RdMulti, 8, rtc);

  for (i = 0; i < 7; i++)
    rtc[i] = (rtc[i] / 16) * 10 + rtc[i] % 16;
  14:	781a      	ldrb	r2, [r3, #0]
  16:	0915      	lsrs	r5, r2, #4
  18:	f002 040f 	and.w	r4, r2, #15
  1c:	220a      	movs	r2, #10
  1e:	fb02 4205 	mla	r2, r2, r5, r4
  22:	f803 2b01 	strb.w	r2, [r3], #1
D:\sunny\stm32\therme\Project\src/main.c:997
{
  u8 i;
  //DS1307_Read(rtc);
  RecByte_1302(RdMulti, 8, rtc);

  for (i = 0; i < 7; i++)
  26:	4283      	cmp	r3, r0
  28:	d1f4      	bne.n	14 <Read_RTC+0x14>
D:\sunny\stm32\therme\Project\src/main.c:1000
    rtc[i] = (rtc[i] / 16) * 10 + rtc[i] % 16;

  sprintf(ubuff, "%02d-%02d-%02d %02d:%02d:%02d - %d:%d:%d:%d", rtc[4], rtc[5],
  2a:	7988      	ldrb	r0, [r1, #6]
  2c:	790a      	ldrb	r2, [r1, #4]
  2e:	794b      	ldrb	r3, [r1, #5]
  30:	9000      	str	r0, [sp, #0]
  32:	7888      	ldrb	r0, [r1, #2]
  34:	9001      	str	r0, [sp, #4]
  36:	7848      	ldrb	r0, [r1, #1]
  38:	9002      	str	r0, [sp, #8]
  3a:	7809      	ldrb	r1, [r1, #0]
  3c:	9103      	str	r1, [sp, #12]
  3e:	4908      	ldr	r1, [pc, #32]	; (60 <Read_RTC+0x60>)
  40:	6808      	ldr	r0, [r1, #0]
  42:	9004      	str	r0, [sp, #16]
  44:	6848      	ldr	r0, [r1, #4]
  46:	9005      	str	r0, [sp, #20]
  48:	6888      	ldr	r0, [r1, #8]
  4a:	9006      	str	r0, [sp, #24]
  4c:	68c9      	ldr	r1, [r1, #12]
  4e:	4805      	ldr	r0, [pc, #20]	; (64 <Read_RTC+0x64>)
  50:	9107      	str	r1, [sp, #28]
  52:	4905      	ldr	r1, [pc, #20]	; (68 <Read_RTC+0x68>)
  54:	f7ff fffe 	bl	0 <sprintf>
D:\sunny\stm32\therme\Project\src/main.c:1003
      rtc[6], rtc[2], rtc[1], rtc[0], butt[0], butt[1], butt[2], butt[3]);

}
  58:	b009      	add	sp, #36	; 0x24
  5a:	bd30      	pop	{r4, r5, pc}
	...
  68:	000000bd 	.word	0x000000bd

Disassembly of section .text.WrCmd:

00000000 <WrCmd>:
WrCmd():
D:\sunny\stm32\therme\Project\src/main.c:1778
  set_dat_o(0);
}

void
WrCmd(u8 CmdDat, u8 CmdWord)
{
   0:	b507      	push	{r0, r1, r2, lr}
D:\sunny\stm32\therme\Project\src/main.c:1780
  u8 CmdBuf[2];
  CmdBuf[0] = CmdWord;
   2:	aa02      	add	r2, sp, #8
   4:	f802 1d04 	strb.w	r1, [r2, #-4]!
D:\sunny\stm32\therme\Project\src/main.c:1781
  WriteByte_1302(CmdDat, 1, CmdBuf);
   8:	2101      	movs	r1, #1
   a:	f7ff fffe 	bl	0 <WrCmd>
D:\sunny\stm32\therme\Project\src/main.c:1782
}
   e:	bd0e      	pop	{r1, r2, r3, pc}

Disassembly of section .text.Ds1302_int:

00000000 <Ds1302_int>:
Ds1302_int():
D:\sunny\stm32\therme\Project\src/main.c:1786

void
Ds1302_int()
{
   0:	b537      	push	{r0, r1, r2, r4, r5, lr}
D:\sunny\stm32\therme\Project\src/main.c:1789
  GPIO_InitTypeDef GPIO_InitStructure;

  GPIO_InitStructure.GPIO_Pin = ds1302Clk | ds1302Rst;
   2:	f24a 0300 	movw	r3, #40960	; 0xa000
D:\sunny\stm32\therme\Project\src/main.c:1790
  GPIO_InitStructure.GPIO_Mode = GPIO_Mode_Out_PP;
   6:	2510      	movs	r5, #16
D:\sunny\stm32\therme\Project\src/main.c:1791
  GPIO_InitStructure.GPIO_Speed = GPIO_Speed_50MHz;
   8:	2403      	movs	r4, #3
D:\sunny\stm32\therme\Project\src/main.c:1792
  GPIO_Init(ds1302Port, &GPIO_InitStructure);
   a:	a901      	add	r1, sp, #4
   c:	4810      	ldr	r0, [pc, #64]	; (50 <Ds1302_int+0x50>)
D:\sunny\stm32\therme\Project\src/main.c:1789
void
Ds1302_int()
{
  GPIO_InitTypeDef GPIO_InitStructure;

  GPIO_InitStructure.GPIO_Pin = ds1302Clk | ds1302Rst;
   e:	f8ad 3004 	strh.w	r3, [sp, #4]
D:\sunny\stm32\therme\Project\src/main.c:1790
  GPIO_InitStructure.GPIO_Mode = GPIO_Mode_Out_PP;
  12:	f88d 5007 	strb.w	r5, [sp, #7]
D:\sunny\stm32\therme\Project\src/main.c:1791
  GPIO_InitStructure.GPIO_Speed = GPIO_Speed_50MHz;
  16:	f88d 4006 	strb.w	r4, [sp, #6]
D:\sunny\stm32\therme\Project\src/main.c:1792
  GPIO_Init(ds1302Port, &GPIO_InitStructure);
  1a:	f7ff fffe 	bl	0 <GPIO_Init>
D:\sunny\stm32\therme\Project\src/main.c:1794

  GPIO_InitStructure.GPIO_Pin = ds1302Dat;
  1e:	f44f 4380 	mov.w	r3, #16384	; 0x4000
D:\sunny\stm32\therme\Project\src/main.c:1797
  GPIO_InitStructure.GPIO_Mode = GPIO_Mode_Out_PP;
  GPIO_InitStructure.GPIO_Speed = GPIO_Speed_50MHz;
  GPIO_Init(ds1302Port, &GPIO_InitStructure);
  22:	a901      	add	r1, sp, #4
  24:	480a      	ldr	r0, [pc, #40]	; (50 <Ds1302_int+0x50>)
D:\sunny\stm32\therme\Project\src/main.c:1794
  GPIO_InitStructure.GPIO_Pin = ds1302Clk | ds1302Rst;
  GPIO_InitStructure.GPIO_Mode = GPIO_Mode_Out_PP;
  GPIO_InitStructure.GPIO_Speed = GPIO_Speed_50MHz;
  GPIO_Init(ds1302Port, &GPIO_InitStructure);

  GPIO_InitStructure.GPIO_Pin = ds1302Dat;
  26:	f8ad 3004 	strh.w	r3, [sp, #4]
D:\sunny\stm32\therme\Project\src/main.c:1795
  GPIO_InitStructure.GPIO_Mode = GPIO_Mode_Out_PP;
  2a:	f88d 5007 	strb.w	r5, [sp, #7]
D:\sunny\stm32\therme\Project\src/main.c:1796
  GPIO_InitStructure.GPIO_Speed = GPIO_Speed_50MHz;
  2e:	f88d 4006 	strb.w	r4, [sp, #6]
D:\sunny\stm32\therme\Project\src/main.c:1797
  GPIO_Init(ds1302Port, &GPIO_InitStructure);
  32:	f7ff fffe 	bl	0 <GPIO_Init>
D:\sunny\stm32\therme\Project\src/main.c:1799

  GPIO_InitStructure.GPIO_Pin = GPIO_Pin_15;
  36:	f248 0300 	movw	r3, #32768	; 0x8000
D:\sunny\stm32\therme\Project\src/main.c:1802
  GPIO_InitStructure.GPIO_Mode = GPIO_Mode_Out_PP;
  GPIO_InitStructure.GPIO_Speed = GPIO_Speed_50MHz;
  GPIO_Init(GPIOE, &GPIO_InitStructure);
  3a:	4806      	ldr	r0, [pc, #24]	; (54 <Ds1302_int+0x54>)
  3c:	a901      	add	r1, sp, #4
D:\sunny\stm32\therme\Project\src/main.c:1799
  GPIO_InitStructure.GPIO_Pin = ds1302Dat;
  GPIO_InitStructure.GPIO_Mode = GPIO_Mode_Out_PP;
  GPIO_InitStructure.GPIO_Speed = GPIO_Speed_50MHz;
  GPIO_Init(ds1302Port, &GPIO_InitStructure);

  GPIO_InitStructure.GPIO_Pin = GPIO_Pin_15;
  3e:	f8ad 3004 	strh.w	r3, [sp, #4]
D:\sunny\stm32\therme\Project\src/main.c:1800
  GPIO_InitStructure.GPIO_Mode = GPIO_Mode_Out_PP;
  42:	f88d 5007 	strb.w	r5, [sp, #7]
D:\sunny\stm32\therme\Project\src/main.c:1801
  GPIO_InitStructure.GPIO_Speed = GPIO_Speed_50MHz;
  46:	f88d 4006 	strb.w	r4, [sp, #6]
D:\sunny\stm32\therme\Project\src/main.c:1802
  GPIO_Init(GPIOE, &GPIO_InitStructure);
  4a:	f7ff fffe 	bl	0 <GPIO_Init>
D:\sunny\stm32\therme\Project\src/main.c:1828
  */
  //set_date(Ds1302SendBuf);
  //WriteByte_1302(WrMulti,8,Ds1302SendBuf);//??????DS1302?
  // ?????,
	
}
  4e:	bd3e      	pop	{r1, r2, r3, r4, r5, pc}
  50:	40011400 	.word	0x40011400
  54:	40011800 	.word	0x40011800

Disassembly of section .text.uDelay:

00000000 <uDelay>:
uDelay():
D:\sunny\stm32\therme\Project\src/main.c:1839
  dd = 0;
  while (10000 > dd)
    {
      dd++;
    }
}
   0:	4770      	bx	lr

Disassembly of section .text.out_toggle_s:

00000000 <out_toggle_s>:
out_toggle_s():
D:\sunny\stm32\therme\Project\src/main.c:1842
void
out_toggle_s(out_TypeDef out)
{
   0:	b510      	push	{r4, lr}
   2:	4604      	mov	r4, r0
D:\sunny\stm32\therme\Project\src/main.c:1846
  unsigned char uii;
  uii = 1;
  unsigned char ii;
  ii = read_inp(out);
   4:	f7ff fffe 	bl	0 <read_inp>
D:\sunny\stm32\therme\Project\src/main.c:1847
  if (start == 0)
   8:	4b16      	ldr	r3, [pc, #88]	; (64 <out_toggle_s+0x64>)
   a:	781b      	ldrb	r3, [r3, #0]
   c:	2b00      	cmp	r3, #0
   e:	d127      	bne.n	60 <out_toggle_s+0x60>
D:\sunny\stm32\therme\Project\src/main.c:1846
out_toggle_s(out_TypeDef out)
{
  unsigned char uii;
  uii = 1;
  unsigned char ii;
  ii = read_inp(out);
  10:	b2c0      	uxtb	r0, r0
D:\sunny\stm32\therme\Project\src/main.c:1849
  if (start == 0)
    {
      if (out == 0)
  12:	b97c      	cbnz	r4, 34 <out_toggle_s+0x34>
  14:	4b14      	ldr	r3, [pc, #80]	; (68 <out_toggle_s+0x68>)
D:\sunny\stm32\therme\Project\src/main.c:1851
        {
          if (ii)
  16:	b128      	cbz	r0, 24 <out_toggle_s+0x24>
D:\sunny\stm32\therme\Project\src/main.c:1853
            {
              leds[2] = 2;
  18:	4a14      	ldr	r2, [pc, #80]	; (6c <out_toggle_s+0x6c>)
  1a:	2102      	movs	r1, #2
  1c:	7091      	strb	r1, [r2, #2]
D:\sunny\stm32\therme\Project\src/main.c:1854
              delay_fin[1] = 1;
  1e:	681b      	ldr	r3, [r3, #0]
  20:	2201      	movs	r2, #1
  22:	e00c      	b.n	3e <out_toggle_s+0x3e>
D:\sunny\stm32\therme\Project\src/main.c:1858
            }
          else
            {
              if (delay_fin[1] == 2)
  24:	681b      	ldr	r3, [r3, #0]
  26:	785b      	ldrb	r3, [r3, #1]
  28:	2b02      	cmp	r3, #2
  2a:	d019      	beq.n	60 <out_toggle_s+0x60>
D:\sunny\stm32\therme\Project\src/main.c:1862
                uii = 2;
              else
                {
                  leds[2] = 1;
  2c:	4b0f      	ldr	r3, [pc, #60]	; (6c <out_toggle_s+0x6c>)
  2e:	2201      	movs	r2, #1
  30:	709a      	strb	r2, [r3, #2]
  32:	e010      	b.n	56 <out_toggle_s+0x56>
D:\sunny\stm32\therme\Project\src/main.c:1867
                }
            }
        }

      if (out == 1)
  34:	2c01      	cmp	r4, #1
  36:	d106      	bne.n	46 <out_toggle_s+0x46>
  38:	4b0c      	ldr	r3, [pc, #48]	; (6c <out_toggle_s+0x6c>)
D:\sunny\stm32\therme\Project\src/main.c:1869
        {
          if (ii)
  3a:	b110      	cbz	r0, 42 <out_toggle_s+0x42>
D:\sunny\stm32\therme\Project\src/main.c:1870
            leds[1] = 2;
  3c:	2202      	movs	r2, #2
  3e:	705a      	strb	r2, [r3, #1]
  40:	e009      	b.n	56 <out_toggle_s+0x56>
D:\sunny\stm32\therme\Project\src/main.c:1872
          else
            leds[1] = 1;
  42:	705c      	strb	r4, [r3, #1]
  44:	e007      	b.n	56 <out_toggle_s+0x56>
D:\sunny\stm32\therme\Project\src/main.c:1875
        }

      if (out == 2)
  46:	2c02      	cmp	r4, #2
  48:	d105      	bne.n	56 <out_toggle_s+0x56>
  4a:	4b08      	ldr	r3, [pc, #32]	; (6c <out_toggle_s+0x6c>)
D:\sunny\stm32\therme\Project\src/main.c:1877
        {
          if (ii)
  4c:	b108      	cbz	r0, 52 <out_toggle_s+0x52>
D:\sunny\stm32\therme\Project\src/main.c:1878
            leds[3] = 2;
  4e:	70dc      	strb	r4, [r3, #3]
  50:	e001      	b.n	56 <out_toggle_s+0x56>
D:\sunny\stm32\therme\Project\src/main.c:1880
          else
            leds[3] = 1;
  52:	2201      	movs	r2, #1
  54:	70da      	strb	r2, [r3, #3]
D:\sunny\stm32\therme\Project\src/main.c:1890
       uii = 0;
       }
       }*/
      if (uii == 1)
        {
          out_toggle(out);
  56:	4620      	mov	r0, r4
D:\sunny\stm32\therme\Project\src/main.c:1893
        }
    }
}
  58:	e8bd 4010 	ldmia.w	sp!, {r4, lr}
D:\sunny\stm32\therme\Project\src/main.c:1890
       uii = 0;
       }
       }*/
      if (uii == 1)
        {
          out_toggle(out);
  5c:	f7ff bffe 	b.w	0 <out_toggle>
  60:	bd10      	pop	{r4, pc}
  62:	bf00      	nop
	...

Disassembly of section .text.outpp:

00000000 <outpp>:
outpp():
D:\sunny\stm32\therme\Project\src/main.c:1896
        }
    }
}
void
outpp(unsigned char val)
{
   0:	b570      	push	{r4, r5, r6, lr}
D:\sunny\stm32\therme\Project\src/main.c:1898

  if (sdoor == 1)
   2:	4b3d      	ldr	r3, [pc, #244]	; (f8 <outpp+0xf8>)
D:\sunny\stm32\therme\Project\src/main.c:1896
        }
    }
}
void
outpp(unsigned char val)
{
   4:	4604      	mov	r4, r0
D:\sunny\stm32\therme\Project\src/main.c:1898

  if (sdoor == 1)
   6:	781b      	ldrb	r3, [r3, #0]
   8:	2b01      	cmp	r3, #1
   a:	d103      	bne.n	14 <outpp+0x14>
D:\sunny\stm32\therme\Project\src/main.c:1900
    {
      val &= ebuff[43]; // 26 29
   c:	4b3b      	ldr	r3, [pc, #236]	; (fc <outpp+0xfc>)
   e:	f893 302b 	ldrb.w	r3, [r3, #43]	; 0x2b
  12:	e009      	b.n	28 <outpp+0x28>
D:\sunny\stm32\therme\Project\src/main.c:1902
    }
  else if (sdoor == 8)
  14:	2b08      	cmp	r3, #8
  16:	d103      	bne.n	20 <outpp+0x20>
D:\sunny\stm32\therme\Project\src/main.c:1904
    {
      val &= ebuff[44]; // 27 30
  18:	4b38      	ldr	r3, [pc, #224]	; (fc <outpp+0xfc>)
  1a:	f893 302c 	ldrb.w	r3, [r3, #44]	; 0x2c
  1e:	e003      	b.n	28 <outpp+0x28>
D:\sunny\stm32\therme\Project\src/main.c:1906
    }
  else if (sdoor >= 9)
  20:	d903      	bls.n	2a <outpp+0x2a>
D:\sunny\stm32\therme\Project\src/main.c:1908
    {
      val &= ebuff[45]; // 28 31
  22:	4b36      	ldr	r3, [pc, #216]	; (fc <outpp+0xfc>)
  24:	f893 302d 	ldrb.w	r3, [r3, #45]	; 0x2d
  28:	401c      	ands	r4, r3
D:\sunny\stm32\therme\Project\src/main.c:1911
    }

  if (read_inp(k0))
  2a:	2000      	movs	r0, #0
  2c:	f7ff fffe 	bl	0 <read_inp>
  30:	f004 0301 	and.w	r3, r4, #1
  34:	4a32      	ldr	r2, [pc, #200]	; (100 <outpp+0x100>)
  36:	4933      	ldr	r1, [pc, #204]	; (104 <outpp+0x104>)
  38:	b308      	cbz	r0, 7e <outpp+0x7e>
  3a:	2001      	movs	r0, #1
  3c:	4d32      	ldr	r5, [pc, #200]	; (108 <outpp+0x108>)
D:\sunny\stm32\therme\Project\src/main.c:1913
    {
      if ((val & 0x01) == 0x01)
  3e:	b16b      	cbz	r3, 5c <outpp+0x5c>
D:\sunny\stm32\therme\Project\src/main.c:1916
        {
          leds[2] = 1;
          delay_fin[3] = 1;
  40:	680b      	ldr	r3, [r1, #0]
D:\sunny\stm32\therme\Project\src/main.c:1915

  if (read_inp(k0))
    {
      if ((val & 0x01) == 0x01)
        {
          leds[2] = 1;
  42:	7090      	strb	r0, [r2, #2]
D:\sunny\stm32\therme\Project\src/main.c:1916
          delay_fin[3] = 1;
  44:	70d8      	strb	r0, [r3, #3]
D:\sunny\stm32\therme\Project\src/main.c:1917
		  if(err_com <= 0)
  46:	782b      	ldrb	r3, [r5, #0]
  48:	2b00      	cmp	r3, #0
  4a:	d142      	bne.n	d2 <outpp+0xd2>
D:\sunny\stm32\therme\Project\src/main.c:1920
		  {
			  err_com = 1;
			  delay_com_start = (ebuff[20]*60) + ebuff[21];
  4c:	4b2b      	ldr	r3, [pc, #172]	; (fc <outpp+0xfc>)
D:\sunny\stm32\therme\Project\src/main.c:1919
        {
          leds[2] = 1;
          delay_fin[3] = 1;
		  if(err_com <= 0)
		  {
			  err_com = 1;
  4e:	7028      	strb	r0, [r5, #0]
D:\sunny\stm32\therme\Project\src/main.c:1920
			  delay_com_start = (ebuff[20]*60) + ebuff[21];
  50:	f993 1014 	ldrsb.w	r1, [r3, #20]
  54:	303b      	adds	r0, #59	; 0x3b
  56:	f993 3015 	ldrsb.w	r3, [r3, #21]
  5a:	e024      	b.n	a6 <outpp+0xa6>
D:\sunny\stm32\therme\Project\src/main.c:1925
		  }
       }
      else
        {
          delay_fin[1] = 1;
  5c:	680e      	ldr	r6, [r1, #0]
  5e:	7070      	strb	r0, [r6, #1]
D:\sunny\stm32\therme\Project\src/main.c:1927
          leds[2] = 2;
          delay_fin[3] = 0;
  60:	6809      	ldr	r1, [r1, #0]
D:\sunny\stm32\therme\Project\src/main.c:1926
		  }
       }
      else
        {
          delay_fin[1] = 1;
          leds[2] = 2;
  62:	2002      	movs	r0, #2
  64:	7090      	strb	r0, [r2, #2]
D:\sunny\stm32\therme\Project\src/main.c:1927
          delay_fin[3] = 0;
  66:	70cb      	strb	r3, [r1, #3]
D:\sunny\stm32\therme\Project\src/main.c:1928
          delh[3] = 0;
  68:	4928      	ldr	r1, [pc, #160]	; (10c <outpp+0x10c>)
  6a:	6809      	ldr	r1, [r1, #0]
  6c:	70cb      	strb	r3, [r1, #3]
D:\sunny\stm32\therme\Project\src/main.c:1929
          delm[3] = 0;
  6e:	4928      	ldr	r1, [pc, #160]	; (110 <outpp+0x110>)
  70:	6809      	ldr	r1, [r1, #0]
  72:	70cb      	strb	r3, [r1, #3]
D:\sunny\stm32\therme\Project\src/main.c:1930
          dels[3] = 0;
  74:	4927      	ldr	r1, [pc, #156]	; (114 <outpp+0x114>)
  76:	6809      	ldr	r1, [r1, #0]
  78:	70cb      	strb	r3, [r1, #3]
D:\sunny\stm32\therme\Project\src/main.c:1931
		  err_com = 0;
  7a:	702b      	strb	r3, [r5, #0]
  7c:	e027      	b.n	ce <outpp+0xce>
D:\sunny\stm32\therme\Project\src/main.c:1937
		  delay_com_start = 0;
        }
    }
  else
    {
      if ((val & 0x01) == 0x01)
  7e:	b1bb      	cbz	r3, b0 <outpp+0xb0>
D:\sunny\stm32\therme\Project\src/main.c:1939
        {
          if (delay_fin[1] == 2)
  80:	680b      	ldr	r3, [r1, #0]
  82:	785b      	ldrb	r3, [r3, #1]
  84:	2b02      	cmp	r3, #2
  86:	d102      	bne.n	8e <outpp+0x8e>
D:\sunny\stm32\therme\Project\src/main.c:1940
            val &= 0xfe;
  88:	f004 04fe 	and.w	r4, r4, #254	; 0xfe
  8c:	e021      	b.n	d2 <outpp+0xd2>
D:\sunny\stm32\therme\Project\src/main.c:1944
          else
            {
              leds[2] = 1;
			  if(err_com <= 0)
  8e:	4b1e      	ldr	r3, [pc, #120]	; (108 <outpp+0x108>)
D:\sunny\stm32\therme\Project\src/main.c:1943
        {
          if (delay_fin[1] == 2)
            val &= 0xfe;
          else
            {
              leds[2] = 1;
  90:	2101      	movs	r1, #1
D:\sunny\stm32\therme\Project\src/main.c:1944
			  if(err_com <= 0)
  92:	7818      	ldrb	r0, [r3, #0]
D:\sunny\stm32\therme\Project\src/main.c:1943
        {
          if (delay_fin[1] == 2)
            val &= 0xfe;
          else
            {
              leds[2] = 1;
  94:	7091      	strb	r1, [r2, #2]
D:\sunny\stm32\therme\Project\src/main.c:1944
			  if(err_com <= 0)
  96:	b9e0      	cbnz	r0, d2 <outpp+0xd2>
D:\sunny\stm32\therme\Project\src/main.c:1946
			  {
				  err_com = 1;
  98:	7019      	strb	r1, [r3, #0]
D:\sunny\stm32\therme\Project\src/main.c:1947
				  delay_com_start = (ebuff[20]*60) + ebuff[21];
  9a:	4b18      	ldr	r3, [pc, #96]	; (fc <outpp+0xfc>)
  9c:	303c      	adds	r0, #60	; 0x3c
  9e:	f993 1014 	ldrsb.w	r1, [r3, #20]
  a2:	f993 3015 	ldrsb.w	r3, [r3, #21]
  a6:	fb00 3101 	mla	r1, r0, r1, r3
  aa:	4b1b      	ldr	r3, [pc, #108]	; (118 <outpp+0x118>)
  ac:	6019      	str	r1, [r3, #0]
  ae:	e010      	b.n	d2 <outpp+0xd2>
D:\sunny\stm32\therme\Project\src/main.c:1955
            }
        }
      else
        {
          leds[2] = 2;
          delay_fin[3] = 0;
  b0:	6809      	ldr	r1, [r1, #0]
D:\sunny\stm32\therme\Project\src/main.c:1954
			  
            }
        }
      else
        {
          leds[2] = 2;
  b2:	2002      	movs	r0, #2
  b4:	7090      	strb	r0, [r2, #2]
D:\sunny\stm32\therme\Project\src/main.c:1955
          delay_fin[3] = 0;
  b6:	70cb      	strb	r3, [r1, #3]
D:\sunny\stm32\therme\Project\src/main.c:1956
          delh[3] = 0;
  b8:	4914      	ldr	r1, [pc, #80]	; (10c <outpp+0x10c>)
  ba:	6809      	ldr	r1, [r1, #0]
  bc:	70cb      	strb	r3, [r1, #3]
D:\sunny\stm32\therme\Project\src/main.c:1957
          delm[3] = 0;
  be:	4914      	ldr	r1, [pc, #80]	; (110 <outpp+0x110>)
  c0:	6809      	ldr	r1, [r1, #0]
  c2:	70cb      	strb	r3, [r1, #3]
D:\sunny\stm32\therme\Project\src/main.c:1958
          dels[3] = 0;
  c4:	4913      	ldr	r1, [pc, #76]	; (114 <outpp+0x114>)
  c6:	6809      	ldr	r1, [r1, #0]
  c8:	70cb      	strb	r3, [r1, #3]
D:\sunny\stm32\therme\Project\src/main.c:1959
		  err_com = 0;
  ca:	490f      	ldr	r1, [pc, #60]	; (108 <outpp+0x108>)
  cc:	700b      	strb	r3, [r1, #0]
D:\sunny\stm32\therme\Project\src/main.c:1960
		  delay_com_start = 0;
  ce:	4912      	ldr	r1, [pc, #72]	; (118 <outpp+0x118>)
  d0:	600b      	str	r3, [r1, #0]
D:\sunny\stm32\therme\Project\src/main.c:1964
        }
    }

  if ((val & 0x02) == 0x02)
  d2:	f014 0f02 	tst.w	r4, #2
  d6:	d001      	beq.n	dc <outpp+0xdc>
D:\sunny\stm32\therme\Project\src/main.c:1965
    leds[1] = 1;
  d8:	2301      	movs	r3, #1
  da:	e000      	b.n	de <outpp+0xde>
D:\sunny\stm32\therme\Project\src/main.c:1967
  else
    leds[1] = 2;
  dc:	2302      	movs	r3, #2
D:\sunny\stm32\therme\Project\src/main.c:1969

  if ((val & 0x04) == 0x04)
  de:	f014 0f04 	tst.w	r4, #4
D:\sunny\stm32\therme\Project\src/main.c:1967
    }

  if ((val & 0x02) == 0x02)
    leds[1] = 1;
  else
    leds[1] = 2;
  e2:	7053      	strb	r3, [r2, #1]
D:\sunny\stm32\therme\Project\src/main.c:1969

  if ((val & 0x04) == 0x04)
  e4:	d001      	beq.n	ea <outpp+0xea>
D:\sunny\stm32\therme\Project\src/main.c:1970
    leds[3] = 1;
  e6:	2301      	movs	r3, #1
  e8:	e000      	b.n	ec <outpp+0xec>
D:\sunny\stm32\therme\Project\src/main.c:1972
  else
    leds[3] = 2;
  ea:	2302      	movs	r3, #2
D:\sunny\stm32\therme\Project\src/main.c:1999
   val &= door_c;

   }
   */

  out_write(val);
  ec:	4620      	mov	r0, r4
D:\sunny\stm32\therme\Project\src/main.c:1972
    leds[1] = 2;

  if ((val & 0x04) == 0x04)
    leds[3] = 1;
  else
    leds[3] = 2;
  ee:	70d3      	strb	r3, [r2, #3]
D:\sunny\stm32\therme\Project\src/main.c:2001
   }
   */

  out_write(val);

}
  f0:	e8bd 4070 	ldmia.w	sp!, {r4, r5, r6, lr}
D:\sunny\stm32\therme\Project\src/main.c:1999
   val &= door_c;

   }
   */

  out_write(val);
  f4:	f7ff bffe 	b.w	0 <out_write>
	...

Disassembly of section .text.func_chk:

00000000 <func_chk>:
func_chk():
D:\sunny\stm32\therme\Project\src/main.c:1352

}
/* Check modes and status */
void
func_chk(unsigned char mod)
{
   0:	e92d 4ff8 	stmdb	sp!, {r3, r4, r5, r6, r7, r8, r9, sl, fp, lr}
D:\sunny\stm32\therme\Project\src/main.c:1360
  mi = 0;
  unsigned char em, ep;
  unsigned char dat[7];

  /*  start  ******************************************************/
  if (start == 1)
   4:	4f84      	ldr	r7, [pc, #528]	; (218 <func_chk+0x218>)
   6:	4c85      	ldr	r4, [pc, #532]	; (21c <func_chk+0x21c>)
   8:	783b      	ldrb	r3, [r7, #0]
   a:	2b01      	cmp	r3, #1
   c:	f040 81f4 	bne.w	3f8 <func_chk+0x3f8>
D:\sunny\stm32\therme\Project\src/main.c:1362
    {
      if (delay_fin[0] == 1) // main recipe
  10:	6823      	ldr	r3, [r4, #0]
  12:	4e83      	ldr	r6, [pc, #524]	; (220 <func_chk+0x220>)
  14:	781b      	ldrb	r3, [r3, #0]
  16:	4d83      	ldr	r5, [pc, #524]	; (224 <func_chk+0x224>)
  18:	2b01      	cmp	r3, #1
  1a:	d151      	bne.n	c0 <func_chk+0xc0>
D:\sunny\stm32\therme\Project\src/main.c:1364
        {
          if (modes >= 4)
  1c:	7832      	ldrb	r2, [r6, #0]
D:\sunny\stm32\therme\Project\src/main.c:1371
          em = modes * 2;
          //printU(em);
          if (em >= 8)
            em = 0;
			
          delh[0] = ebuff[em];
  1e:	4982      	ldr	r1, [pc, #520]	; (228 <func_chk+0x228>)
D:\sunny\stm32\therme\Project\src/main.c:1364
  /*  start  ******************************************************/
  if (start == 1)
    {
      if (delay_fin[0] == 1) // main recipe
        {
          if (modes >= 4)
  20:	2a03      	cmp	r2, #3
D:\sunny\stm32\therme\Project\src/main.c:1365
            modes = 1;
  22:	bf88      	it	hi
  24:	7033      	strbhi	r3, [r6, #0]
D:\sunny\stm32\therme\Project\src/main.c:1366
          em = modes * 2;
  26:	7833      	ldrb	r3, [r6, #0]
D:\sunny\stm32\therme\Project\src/main.c:1371
          //printU(em);
          if (em >= 8)
            em = 0;
			
          delh[0] = ebuff[em];
  28:	680a      	ldr	r2, [r1, #0]
D:\sunny\stm32\therme\Project\src/main.c:1366
    {
      if (delay_fin[0] == 1) // main recipe
        {
          if (modes >= 4)
            modes = 1;
          em = modes * 2;
  2a:	005b      	lsls	r3, r3, #1
  2c:	b2db      	uxtb	r3, r3
D:\sunny\stm32\therme\Project\src/main.c:1369
          //printU(em);
          if (em >= 8)
            em = 0;
  2e:	2b07      	cmp	r3, #7
  30:	bf88      	it	hi
  32:	2300      	movhi	r3, #0
D:\sunny\stm32\therme\Project\src/main.c:1371
			
          delh[0] = ebuff[em];
  34:	5ce8      	ldrb	r0, [r5, r3]
D:\sunny\stm32\therme\Project\src/main.c:1372
          delm[0] = ebuff[em + 1];
  36:	18eb      	adds	r3, r5, r3
D:\sunny\stm32\therme\Project\src/main.c:1371
          em = modes * 2;
          //printU(em);
          if (em >= 8)
            em = 0;
			
          delh[0] = ebuff[em];
  38:	7010      	strb	r0, [r2, #0]
D:\sunny\stm32\therme\Project\src/main.c:1372
          delm[0] = ebuff[em + 1];
  3a:	4a7c      	ldr	r2, [pc, #496]	; (22c <func_chk+0x22c>)
  3c:	785b      	ldrb	r3, [r3, #1]
  3e:	6810      	ldr	r0, [r2, #0]
  40:	7003      	strb	r3, [r0, #0]
D:\sunny\stm32\therme\Project\src/main.c:1374
		  
			if(modes==2 && err_c[1]==1)
  42:	7833      	ldrb	r3, [r6, #0]
  44:	2b02      	cmp	r3, #2
  46:	4613      	mov	r3, r2
  48:	d10a      	bne.n	60 <func_chk+0x60>
  4a:	4a79      	ldr	r2, [pc, #484]	; (230 <func_chk+0x230>)
  4c:	7852      	ldrb	r2, [r2, #1]
  4e:	2a01      	cmp	r2, #1
  50:	d106      	bne.n	60 <func_chk+0x60>
D:\sunny\stm32\therme\Project\src/main.c:1376
			{
				delh[0] = 0;
  52:	680a      	ldr	r2, [r1, #0]
  54:	2000      	movs	r0, #0
  56:	7010      	strb	r0, [r2, #0]
D:\sunny\stm32\therme\Project\src/main.c:1377
				delm[0] = ebuff[24];
  58:	4872      	ldr	r0, [pc, #456]	; (224 <func_chk+0x224>)
  5a:	681a      	ldr	r2, [r3, #0]
  5c:	7e00      	ldrb	r0, [r0, #24]
  5e:	7010      	strb	r0, [r2, #0]
D:\sunny\stm32\therme\Project\src/main.c:1380
			}	
			
          if (delm[0] == 0 && delh[0] > 0)
  60:	6818      	ldr	r0, [r3, #0]
  62:	4b74      	ldr	r3, [pc, #464]	; (234 <func_chk+0x234>)
  64:	7802      	ldrb	r2, [r0, #0]
  66:	b982      	cbnz	r2, 8a <func_chk+0x8a>
  68:	f8d1 e000 	ldr.w	lr, [r1]
  6c:	f89e c000 	ldrb.w	ip, [lr]
  70:	f1bc 0f00 	cmp.w	ip, #0
  74:	d009      	beq.n	8a <func_chk+0x8a>
D:\sunny\stm32\therme\Project\src/main.c:1383
            {
              delh[0]--;
              delm[0] = 59;
  76:	4a6d      	ldr	r2, [pc, #436]	; (22c <func_chk+0x22c>)
D:\sunny\stm32\therme\Project\src/main.c:1382
				delm[0] = ebuff[24];
			}	
			
          if (delm[0] == 0 && delh[0] > 0)
            {
              delh[0]--;
  78:	f10c 3cff 	add.w	ip, ip, #4294967295
  7c:	f88e c000 	strb.w	ip, [lr]
D:\sunny\stm32\therme\Project\src/main.c:1383
              delm[0] = 59;
  80:	6811      	ldr	r1, [r2, #0]
  82:	223b      	movs	r2, #59	; 0x3b
  84:	700a      	strb	r2, [r1, #0]
D:\sunny\stm32\therme\Project\src/main.c:1384
              dels[0] = 59;
  86:	681b      	ldr	r3, [r3, #0]
  88:	e00d      	b.n	a6 <func_chk+0xa6>
D:\sunny\stm32\therme\Project\src/main.c:1387
              delay_fin[0] = 2;
            }
          else if (delh[0] <= 0 && delm[0] <= 0)
  8a:	6809      	ldr	r1, [r1, #0]
  8c:	7809      	ldrb	r1, [r1, #0]
  8e:	b931      	cbnz	r1, 9e <func_chk+0x9e>
  90:	b92a      	cbnz	r2, 9e <func_chk+0x9e>
D:\sunny\stm32\therme\Project\src/main.c:1389
            {
              dels[0] = 1;
  92:	681a      	ldr	r2, [r3, #0]
  94:	2301      	movs	r3, #1
  96:	7013      	strb	r3, [r2, #0]
D:\sunny\stm32\therme\Project\src/main.c:1390
              delay_fin[0] = 1;
  98:	6822      	ldr	r2, [r4, #0]
  9a:	7013      	strb	r3, [r2, #0]
  9c:	e007      	b.n	ae <func_chk+0xae>
D:\sunny\stm32\therme\Project\src/main.c:1394
            }
          else
            {
              delm[0]--;
  9e:	3a01      	subs	r2, #1
  a0:	7002      	strb	r2, [r0, #0]
D:\sunny\stm32\therme\Project\src/main.c:1395
              dels[0] = 59;
  a2:	681b      	ldr	r3, [r3, #0]
  a4:	223b      	movs	r2, #59	; 0x3b
  a6:	701a      	strb	r2, [r3, #0]
D:\sunny\stm32\therme\Project\src/main.c:1396
              delay_fin[0] = 2;
  a8:	6823      	ldr	r3, [r4, #0]
  aa:	3a39      	subs	r2, #57	; 0x39
  ac:	701a      	strb	r2, [r3, #0]
D:\sunny\stm32\therme\Project\src/main.c:1399
            }

          outpp(ebuff[(modes + 37)]); // 22
  ae:	7833      	ldrb	r3, [r6, #0]
  b0:	18eb      	adds	r3, r5, r3
  b2:	f893 0025 	ldrb.w	r0, [r3, #37]	; 0x25
  b6:	f7ff fffe 	bl	0 <func_chk>
D:\sunny\stm32\therme\Project\src/main.c:1400
          modes++;
  ba:	7833      	ldrb	r3, [r6, #0]
  bc:	3301      	adds	r3, #1
  be:	7033      	strb	r3, [r6, #0]
D:\sunny\stm32\therme\Project\src/main.c:1409
        {

          //chk_ru(mod);
        }

      if (modes == 2) // recipe 1 check temp
  c0:	7833      	ldrb	r3, [r6, #0]
  c2:	f8df 817c 	ldr.w	r8, [pc, #380]	; 240 <func_chk+0x240>
  c6:	2b02      	cmp	r3, #2
  c8:	d120      	bne.n	10c <func_chk+0x10c>
D:\sunny\stm32\therme\Project\src/main.c:1412
        {
          //buf_port = GPIO_ReadInputData(GPIOE);
          if (temp_p1 < ebuff[8])
  ca:	f995 0008 	ldrsb.w	r0, [r5, #8]
  ce:	f7ff fffe 	bl	0 <__aeabi_i2d>
  d2:	e9d8 ab00 	ldrd	sl, fp, [r8]
  d6:	4602      	mov	r2, r0
  d8:	460b      	mov	r3, r1
  da:	4650      	mov	r0, sl
  dc:	4659      	mov	r1, fp
  de:	f8df 9144 	ldr.w	r9, [pc, #324]	; 224 <func_chk+0x224>
  e2:	f7ff fffe 	bl	0 <__aeabi_dcmplt>
  e6:	b110      	cbz	r0, ee <func_chk+0xee>
D:\sunny\stm32\therme\Project\src/main.c:1414
            {
              outpp(ebuff[41]);
  e8:	f899 0029 	ldrb.w	r0, [r9, #41]	; 0x29
  ec:	e00c      	b.n	108 <func_chk+0x108>
D:\sunny\stm32\therme\Project\src/main.c:1416
            }
          else if (temp_p1 > ebuff[9])
  ee:	f999 0009 	ldrsb.w	r0, [r9, #9]
  f2:	f7ff fffe 	bl	0 <__aeabi_i2d>
  f6:	4602      	mov	r2, r0
  f8:	460b      	mov	r3, r1
  fa:	4650      	mov	r0, sl
  fc:	4659      	mov	r1, fp
  fe:	f7ff fffe 	bl	0 <__aeabi_dcmpgt>
 102:	b118      	cbz	r0, 10c <func_chk+0x10c>
D:\sunny\stm32\therme\Project\src/main.c:1418
            {
              outpp(ebuff[42]);
 104:	f899 002a 	ldrb.w	r0, [r9, #42]	; 0x2a
 108:	f7ff fffe 	bl	0 <func_chk>
D:\sunny\stm32\therme\Project\src/main.c:1421
            }
        }
      if (modes == 3) // defrost check temp
 10c:	7833      	ldrb	r3, [r6, #0]
 10e:	2b03      	cmp	r3, #3
 110:	d149      	bne.n	1a6 <func_chk+0x1a6>
D:\sunny\stm32\therme\Project\src/main.c:1423
        {
          if (def == 0)	// normal defrost
 112:	f8df 9130 	ldr.w	r9, [pc, #304]	; 244 <func_chk+0x244>
 116:	f8df b130 	ldr.w	fp, [pc, #304]	; 248 <func_chk+0x248>
 11a:	f899 a000 	ldrb.w	sl, [r9]
 11e:	f1ba 0f00 	cmp.w	sl, #0
 122:	d110      	bne.n	146 <func_chk+0x146>
D:\sunny\stm32\therme\Project\src/main.c:1425
            {
              if (temp_p2 > ebuff[10])
 124:	f995 000a 	ldrsb.w	r0, [r5, #10]
 128:	f7ff fffe 	bl	0 <__aeabi_i2d>
 12c:	4602      	mov	r2, r0
 12e:	460b      	mov	r3, r1
 130:	e9db 0100 	ldrd	r0, r1, [fp]
 134:	f7ff fffe 	bl	0 <__aeabi_dcmpgt>
 138:	b1b0      	cbz	r0, 168 <func_chk+0x168>
D:\sunny\stm32\therme\Project\src/main.c:1427
                {
                  delay_fin[0] = 1;
 13a:	6823      	ldr	r3, [r4, #0]
 13c:	2201      	movs	r2, #1
 13e:	701a      	strb	r2, [r3, #0]
D:\sunny\stm32\therme\Project\src/main.c:1428
				  def = 0;
 140:	f889 a000 	strb.w	sl, [r9]
 144:	e010      	b.n	168 <func_chk+0x168>
D:\sunny\stm32\therme\Project\src/main.c:1433
                }
            }
          else			// big defrost
            {
              if (temp_p2 > ebuff[17])
 146:	f995 0011 	ldrsb.w	r0, [r5, #17]
 14a:	f7ff fffe 	bl	0 <__aeabi_i2d>
 14e:	4602      	mov	r2, r0
 150:	460b      	mov	r3, r1
 152:	e9db 0100 	ldrd	r0, r1, [fp]
 156:	f7ff fffe 	bl	0 <__aeabi_dcmpgt>
 15a:	b128      	cbz	r0, 168 <func_chk+0x168>
D:\sunny\stm32\therme\Project\src/main.c:1435
                {
                  delay_fin[0] = 1;
 15c:	6823      	ldr	r3, [r4, #0]
 15e:	2201      	movs	r2, #1
 160:	701a      	strb	r2, [r3, #0]
D:\sunny\stm32\therme\Project\src/main.c:1436
                  def = 0;
 162:	2300      	movs	r3, #0
 164:	f889 3000 	strb.w	r3, [r9]
D:\sunny\stm32\therme\Project\src/main.c:1440
                }
            }

          if (temp_p1 > ebuff[18]) // lock display
 168:	f995 0012 	ldrsb.w	r0, [r5, #18]
 16c:	f7ff fffe 	bl	0 <__aeabi_i2d>
 170:	e9d8 ab00 	ldrd	sl, fp, [r8]
 174:	4602      	mov	r2, r0
 176:	460b      	mov	r3, r1
 178:	4650      	mov	r0, sl
 17a:	4659      	mov	r1, fp
 17c:	f7ff fffe 	bl	0 <__aeabi_dcmpgt>
 180:	b108      	cbz	r0, 186 <func_chk+0x186>
D:\sunny\stm32\therme\Project\src/main.c:1442
            {
              locks = 5;
 182:	2205      	movs	r2, #5
 184:	e00c      	b.n	1a0 <func_chk+0x1a0>
D:\sunny\stm32\therme\Project\src/main.c:1444
            }
          else if (temp_p1 < ebuff[19])
 186:	4b27      	ldr	r3, [pc, #156]	; (224 <func_chk+0x224>)
 188:	f993 0013 	ldrsb.w	r0, [r3, #19]
 18c:	f7ff fffe 	bl	0 <__aeabi_i2d>
 190:	4602      	mov	r2, r0
 192:	460b      	mov	r3, r1
 194:	4650      	mov	r0, sl
 196:	4659      	mov	r1, fp
 198:	f7ff fffe 	bl	0 <__aeabi_dcmplt>
 19c:	b118      	cbz	r0, 1a6 <func_chk+0x1a6>
D:\sunny\stm32\therme\Project\src/main.c:1446
            {
              locks = 1;
 19e:	2201      	movs	r2, #1
 1a0:	4b25      	ldr	r3, [pc, #148]	; (238 <func_chk+0x238>)
 1a2:	f883 2284 	strb.w	r2, [r3, #644]	; 0x284
D:\sunny\stm32\therme\Project\src/main.c:1451
            }

        }

      if (delay_fin[2] == 1 || delay_fin[2] == 3) // Door open delay
 1a6:	6823      	ldr	r3, [r4, #0]
 1a8:	4a24      	ldr	r2, [pc, #144]	; (23c <func_chk+0x23c>)
 1aa:	789b      	ldrb	r3, [r3, #2]
 1ac:	2b01      	cmp	r3, #1
 1ae:	d001      	beq.n	1b4 <func_chk+0x1b4>
 1b0:	2b03      	cmp	r3, #3
 1b2:	d153      	bne.n	25c <func_chk+0x25c>
D:\sunny\stm32\therme\Project\src/main.c:1453
        {
          delh[2] = 0;
 1b4:	4b1c      	ldr	r3, [pc, #112]	; (228 <func_chk+0x228>)
 1b6:	2000      	movs	r0, #0
 1b8:	6819      	ldr	r1, [r3, #0]
 1ba:	469e      	mov	lr, r3
 1bc:	7088      	strb	r0, [r1, #2]
D:\sunny\stm32\therme\Project\src/main.c:1455

          if (delay_fin[2] == 1)
 1be:	6821      	ldr	r1, [r4, #0]
 1c0:	4b1a      	ldr	r3, [pc, #104]	; (22c <func_chk+0x22c>)
 1c2:	7889      	ldrb	r1, [r1, #2]
 1c4:	2901      	cmp	r1, #1
 1c6:	d102      	bne.n	1ce <func_chk+0x1ce>
D:\sunny\stm32\therme\Project\src/main.c:1456
            delm[2] = ebuff[11];
 1c8:	6819      	ldr	r1, [r3, #0]
 1ca:	7ae8      	ldrb	r0, [r5, #11]
 1cc:	e006      	b.n	1dc <func_chk+0x1dc>
D:\sunny\stm32\therme\Project\src/main.c:1457
          else if (delay_fin[2] == 3)
 1ce:	2903      	cmp	r1, #3
 1d0:	d10c      	bne.n	1ec <func_chk+0x1ec>
D:\sunny\stm32\therme\Project\src/main.c:1459
            {
              if (sdoor == 9)
 1d2:	7811      	ldrb	r1, [r2, #0]
 1d4:	2909      	cmp	r1, #9
 1d6:	d103      	bne.n	1e0 <func_chk+0x1e0>
D:\sunny\stm32\therme\Project\src/main.c:1467
                  //locks = 0;
                  //buf_port = GPIO_ReadInputData(GPIOE);
                  //out_p = ebuff[45] & (buf_port >> 9);

                  //outpp(out_p);
                  delm[2] = 1;
 1d8:	6819      	ldr	r1, [r3, #0]
 1da:	2001      	movs	r0, #1
 1dc:	7088      	strb	r0, [r1, #2]
 1de:	e005      	b.n	1ec <func_chk+0x1ec>
D:\sunny\stm32\therme\Project\src/main.c:1472

                }
              else
                {
                  delm[2] = ebuff[12];
 1e0:	6819      	ldr	r1, [r3, #0]
 1e2:	7b28      	ldrb	r0, [r5, #12]
 1e4:	7088      	strb	r0, [r1, #2]
D:\sunny\stm32\therme\Project\src/main.c:1477
                  //buf_port = GPIO_ReadInputData(GPIOE);
                  //out_p = ebuff[44] & (buf_port >> 9);
                  //outpp(out_p);

                  sdoor = 8;
 1e6:	4915      	ldr	r1, [pc, #84]	; (23c <func_chk+0x23c>)
 1e8:	2008      	movs	r0, #8
 1ea:	7008      	strb	r0, [r1, #0]
D:\sunny\stm32\therme\Project\src/main.c:1481
                }
            }

          if (delm[2] == 0 && delh[2] > 0)
 1ec:	6819      	ldr	r1, [r3, #0]
 1ee:	4b11      	ldr	r3, [pc, #68]	; (234 <func_chk+0x234>)
 1f0:	7888      	ldrb	r0, [r1, #2]
 1f2:	bb58      	cbnz	r0, 24c <func_chk+0x24c>
 1f4:	f8de e000 	ldr.w	lr, [lr]
 1f8:	f89e c002 	ldrb.w	ip, [lr, #2]
 1fc:	f1bc 0f00 	cmp.w	ip, #0
 200:	d024      	beq.n	24c <func_chk+0x24c>
D:\sunny\stm32\therme\Project\src/main.c:1484
            {
              delh[2]--;
              delm[2] = 59;
 202:	490a      	ldr	r1, [pc, #40]	; (22c <func_chk+0x22c>)
D:\sunny\stm32\therme\Project\src/main.c:1483
                }
            }

          if (delm[2] == 0 && delh[2] > 0)
            {
              delh[2]--;
 204:	f10c 3cff 	add.w	ip, ip, #4294967295
 208:	f88e c002 	strb.w	ip, [lr, #2]
D:\sunny\stm32\therme\Project\src/main.c:1484
              delm[2] = 59;
 20c:	6808      	ldr	r0, [r1, #0]
 20e:	213b      	movs	r1, #59	; 0x3b
 210:	7081      	strb	r1, [r0, #2]
D:\sunny\stm32\therme\Project\src/main.c:1485
              dels[2] = 59;
 212:	681b      	ldr	r3, [r3, #0]
 214:	e01e      	b.n	254 <func_chk+0x254>
 216:	bf00      	nop
	...
D:\sunny\stm32\therme\Project\src/main.c:1489
            }
          else
            {
              delm[2]--;
 24c:	3801      	subs	r0, #1
 24e:	7088      	strb	r0, [r1, #2]
D:\sunny\stm32\therme\Project\src/main.c:1490
              dels[2] = 59;
 250:	681b      	ldr	r3, [r3, #0]
 252:	213b      	movs	r1, #59	; 0x3b
 254:	7099      	strb	r1, [r3, #2]
D:\sunny\stm32\therme\Project\src/main.c:1492
            }
          delay_fin[2] = 2;
 256:	6823      	ldr	r3, [r4, #0]
 258:	2102      	movs	r1, #2
 25a:	7099      	strb	r1, [r3, #2]
D:\sunny\stm32\therme\Project\src/main.c:1496
          //	outpp(eep_b[mod+29]);
        }
	
      if (sdoor == 1) // door open
 25c:	f892 9000 	ldrb.w	r9, [r2]
 260:	f1b9 0f01 	cmp.w	r9, #1
 264:	d116      	bne.n	294 <func_chk+0x294>
D:\sunny\stm32\therme\Project\src/main.c:1498
        {
          if (delay_fin[2] == 0)
 266:	6823      	ldr	r3, [r4, #0]
 268:	789b      	ldrb	r3, [r3, #2]
 26a:	b99b      	cbnz	r3, 294 <func_chk+0x294>
D:\sunny\stm32\therme\Project\src/main.c:1500
            {
              buf_port = GPIO_ReadInputData(GPIOE);
 26c:	4893      	ldr	r0, [pc, #588]	; (4bc <func_chk+0x4bc>)
 26e:	f7ff fffe 	bl	0 <GPIO_ReadInputData>
 272:	4b93      	ldr	r3, [pc, #588]	; (4c0 <func_chk+0x4c0>)
 274:	8018      	strh	r0, [r3, #0]
D:\sunny\stm32\therme\Project\src/main.c:1501
              out_p = ebuff[43] & (buf_port >> 9);
 276:	f895 302b 	ldrb.w	r3, [r5, #43]	; 0x2b
 27a:	ea03 2050 	and.w	r0, r3, r0, lsr #9
 27e:	4b91      	ldr	r3, [pc, #580]	; (4c4 <func_chk+0x4c4>)
 280:	7018      	strb	r0, [r3, #0]
D:\sunny\stm32\therme\Project\src/main.c:1502
              outpp(out_p);
 282:	f7ff fffe 	bl	0 <func_chk>
D:\sunny\stm32\therme\Project\src/main.c:1503
              locks_d = 1;
 286:	4b90      	ldr	r3, [pc, #576]	; (4c8 <func_chk+0x4c8>)
 288:	f883 9000 	strb.w	r9, [r3]
D:\sunny\stm32\therme\Project\src/main.c:1505
              //locks = 0;
              delay_fin[2] = 1;
 28c:	4b8f      	ldr	r3, [pc, #572]	; (4cc <func_chk+0x4cc>)
 28e:	681b      	ldr	r3, [r3, #0]
 290:	f883 9002 	strb.w	r9, [r3, #2]
D:\sunny\stm32\therme\Project\src/main.c:1526
			}
		}	
		*/
      
      // if((ebuff[29] & 1<<(rtc[5]-1)) == 1<<(rtc[5]-1) )		
       if(ebuff[46] && 1<<(rtc[3]) )	//big defrost chk
 294:	f995 202e 	ldrsb.w	r2, [r5, #46]	; 0x2e
 298:	4b8d      	ldr	r3, [pc, #564]	; (4d0 <func_chk+0x4d0>)
 29a:	2a00      	cmp	r2, #0
 29c:	d05a      	beq.n	354 <func_chk+0x354>
 29e:	4a8d      	ldr	r2, [pc, #564]	; (4d4 <func_chk+0x4d4>)
 2a0:	2001      	movs	r0, #1
 2a2:	78d1      	ldrb	r1, [r2, #3]
 2a4:	4088      	lsls	r0, r1
 2a6:	d055      	beq.n	354 <func_chk+0x354>
D:\sunny\stm32\therme\Project\src/main.c:1529
	   {

		   if(ebuff[13]==rtc[2] && ebuff[14]==rtc[1] && def == 0)
 2a8:	f993 000d 	ldrsb.w	r0, [r3, #13]
 2ac:	7891      	ldrb	r1, [r2, #2]
 2ae:	4288      	cmp	r0, r1
 2b0:	d150      	bne.n	354 <func_chk+0x354>
 2b2:	f993 100e 	ldrsb.w	r1, [r3, #14]
 2b6:	7852      	ldrb	r2, [r2, #1]
 2b8:	4291      	cmp	r1, r2
 2ba:	d14b      	bne.n	354 <func_chk+0x354>
 2bc:	4a86      	ldr	r2, [pc, #536]	; (4d8 <func_chk+0x4d8>)
 2be:	7811      	ldrb	r1, [r2, #0]
 2c0:	4694      	mov	ip, r2
 2c2:	2900      	cmp	r1, #0
 2c4:	d146      	bne.n	354 <func_chk+0x354>
D:\sunny\stm32\therme\Project\src/main.c:1531
		   {
			   delh[0] = ebuff[15];
 2c6:	4985      	ldr	r1, [pc, #532]	; (4dc <func_chk+0x4dc>)
 2c8:	7bd8      	ldrb	r0, [r3, #15]
 2ca:	680a      	ldr	r2, [r1, #0]
 2cc:	7010      	strb	r0, [r2, #0]
D:\sunny\stm32\therme\Project\src/main.c:1532
			   delm[0] = ebuff[16];
 2ce:	4a84      	ldr	r2, [pc, #528]	; (4e0 <func_chk+0x4e0>)
 2d0:	7c1b      	ldrb	r3, [r3, #16]
 2d2:	6810      	ldr	r0, [r2, #0]
 2d4:	7003      	strb	r3, [r0, #0]
D:\sunny\stm32\therme\Project\src/main.c:1534

			   if(delm[0] == 0 && delh[0]>0)
 2d6:	6810      	ldr	r0, [r2, #0]
 2d8:	4b82      	ldr	r3, [pc, #520]	; (4e4 <func_chk+0x4e4>)
 2da:	f890 e000 	ldrb.w	lr, [r0]
 2de:	f1be 0f00 	cmp.w	lr, #0
 2e2:	d114      	bne.n	30e <func_chk+0x30e>
 2e4:	f8d1 9000 	ldr.w	r9, [r1]
 2e8:	f899 a000 	ldrb.w	sl, [r9]
 2ec:	f1ba 0f00 	cmp.w	sl, #0
 2f0:	d00d      	beq.n	30e <func_chk+0x30e>
D:\sunny\stm32\therme\Project\src/main.c:1536
			   {
				   delh[0]--;
 2f2:	f10a 3aff 	add.w	sl, sl, #4294967295
 2f6:	f889 a000 	strb.w	sl, [r9]
D:\sunny\stm32\therme\Project\src/main.c:1537
				   delm[0] = 59;
 2fa:	f8d2 e000 	ldr.w	lr, [r2]
 2fe:	203b      	movs	r0, #59	; 0x3b
 300:	f88e 0000 	strb.w	r0, [lr]
D:\sunny\stm32\therme\Project\src/main.c:1538
				   dels[0] = 59;
 304:	f8d3 e000 	ldr.w	lr, [r3]
 308:	f88e 0000 	strb.w	r0, [lr]
 30c:	e008      	b.n	320 <func_chk+0x320>
D:\sunny\stm32\therme\Project\src/main.c:1542
			   }
			   else
			   {
				   delm[0]--;
 30e:	f10e 3eff 	add.w	lr, lr, #4294967295
 312:	f880 e000 	strb.w	lr, [r0]
D:\sunny\stm32\therme\Project\src/main.c:1543
				   dels[0] = 59;
 316:	6818      	ldr	r0, [r3, #0]
 318:	f04f 0e3b 	mov.w	lr, #59	; 0x3b
 31c:	f880 e000 	strb.w	lr, [r0]
D:\sunny\stm32\therme\Project\src/main.c:1546
			   }
			   
			   if(err_c[1]==1)
 320:	4871      	ldr	r0, [pc, #452]	; (4e8 <func_chk+0x4e8>)
 322:	7840      	ldrb	r0, [r0, #1]
 324:	2801      	cmp	r0, #1
 326:	d109      	bne.n	33c <func_chk+0x33c>
D:\sunny\stm32\therme\Project\src/main.c:1548
			   {
					delh[0] = 0;
 328:	6809      	ldr	r1, [r1, #0]
 32a:	3801      	subs	r0, #1
 32c:	7008      	strb	r0, [r1, #0]
D:\sunny\stm32\therme\Project\src/main.c:1549
					delm[0] = ebuff[24] - 1;
 32e:	7e29      	ldrb	r1, [r5, #24]
 330:	6812      	ldr	r2, [r2, #0]
 332:	3901      	subs	r1, #1
 334:	7011      	strb	r1, [r2, #0]
D:\sunny\stm32\therme\Project\src/main.c:1550
					dels[0] = 59;
 336:	681b      	ldr	r3, [r3, #0]
 338:	223b      	movs	r2, #59	; 0x3b
 33a:	701a      	strb	r2, [r3, #0]
D:\sunny\stm32\therme\Project\src/main.c:1553
			   }

			   delay_fin[0] = 2;
 33c:	6823      	ldr	r3, [r4, #0]
 33e:	2202      	movs	r2, #2
 340:	701a      	strb	r2, [r3, #0]
D:\sunny\stm32\therme\Project\src/main.c:1554
			   def = 1;
 342:	2301      	movs	r3, #1
 344:	f88c 3000 	strb.w	r3, [ip]
D:\sunny\stm32\therme\Project\src/main.c:1555
			   outpp(ebuff[(39)]);
 348:	f895 0027 	ldrb.w	r0, [r5, #39]	; 0x27
 34c:	f7ff fffe 	bl	0 <func_chk>
D:\sunny\stm32\therme\Project\src/main.c:1556
			   modes=3;
 350:	2303      	movs	r3, #3
 352:	7033      	strb	r3, [r6, #0]
D:\sunny\stm32\therme\Project\src/main.c:1561
		   }
       }
       

      if (delay_fin[3] == 1)
 354:	6823      	ldr	r3, [r4, #0]
 356:	78da      	ldrb	r2, [r3, #3]
 358:	2a01      	cmp	r2, #1
 35a:	d122      	bne.n	3a2 <func_chk+0x3a2>
D:\sunny\stm32\therme\Project\src/main.c:1563
        {
          delh[3] = 0;
 35c:	4e5f      	ldr	r6, [pc, #380]	; (4dc <func_chk+0x4dc>)
 35e:	2100      	movs	r1, #0
 360:	6833      	ldr	r3, [r6, #0]
 362:	70d9      	strb	r1, [r3, #3]
D:\sunny\stm32\therme\Project\src/main.c:1564
          delm[3] = 1;
 364:	4b5e      	ldr	r3, [pc, #376]	; (4e0 <func_chk+0x4e0>)
 366:	6819      	ldr	r1, [r3, #0]
 368:	70ca      	strb	r2, [r1, #3]
D:\sunny\stm32\therme\Project\src/main.c:1565
          if (delm[3] == 0 && delh[3] > 0)
 36a:	6819      	ldr	r1, [r3, #0]
 36c:	4a5d      	ldr	r2, [pc, #372]	; (4e4 <func_chk+0x4e4>)
 36e:	78c8      	ldrb	r0, [r1, #3]
 370:	b978      	cbnz	r0, 392 <func_chk+0x392>
 372:	6836      	ldr	r6, [r6, #0]
 374:	f896 e003 	ldrb.w	lr, [r6, #3]
 378:	f1be 0f00 	cmp.w	lr, #0
 37c:	d009      	beq.n	392 <func_chk+0x392>
D:\sunny\stm32\therme\Project\src/main.c:1567
            {
              delh[3]--;
 37e:	f10e 3eff 	add.w	lr, lr, #4294967295
 382:	f886 e003 	strb.w	lr, [r6, #3]
D:\sunny\stm32\therme\Project\src/main.c:1568
              delm[3] = 59;
 386:	6819      	ldr	r1, [r3, #0]
 388:	233b      	movs	r3, #59	; 0x3b
 38a:	70cb      	strb	r3, [r1, #3]
D:\sunny\stm32\therme\Project\src/main.c:1569
              dels[3] = 59;
 38c:	6812      	ldr	r2, [r2, #0]
 38e:	70d3      	strb	r3, [r2, #3]
 390:	e004      	b.n	39c <func_chk+0x39c>
D:\sunny\stm32\therme\Project\src/main.c:1573
            }
          else
            {
              delm[3]--;
 392:	3801      	subs	r0, #1
 394:	70c8      	strb	r0, [r1, #3]
D:\sunny\stm32\therme\Project\src/main.c:1574
              dels[3] = 59;
 396:	6813      	ldr	r3, [r2, #0]
 398:	223b      	movs	r2, #59	; 0x3b
 39a:	70da      	strb	r2, [r3, #3]
D:\sunny\stm32\therme\Project\src/main.c:1576
            }
          delay_fin[3] = 2;
 39c:	6823      	ldr	r3, [r4, #0]
 39e:	2202      	movs	r2, #2
 3a0:	70da      	strb	r2, [r3, #3]
D:\sunny\stm32\therme\Project\src/main.c:1579
          //	outpp(eep_b[mod+19]);
        }
      if (delay_fin[3] == 2)
 3a2:	6826      	ldr	r6, [r4, #0]
 3a4:	78f3      	ldrb	r3, [r6, #3]
 3a6:	2b02      	cmp	r3, #2
 3a8:	d111      	bne.n	3ce <func_chk+0x3ce>
D:\sunny\stm32\therme\Project\src/main.c:1581
        {
          if (temp_p1 < 22)
 3aa:	e9d8 0100 	ldrd	r0, r1, [r8]
 3ae:	2200      	movs	r2, #0
 3b0:	4b4e      	ldr	r3, [pc, #312]	; (4ec <func_chk+0x4ec>)
 3b2:	f7ff fffe 	bl	0 <__aeabi_dcmplt>
 3b6:	b150      	cbz	r0, 3ce <func_chk+0x3ce>
D:\sunny\stm32\therme\Project\src/main.c:1583
            {
              delay_fin[3] = 0;
 3b8:	2300      	movs	r3, #0
D:\sunny\stm32\therme\Project\src/main.c:1584
              delh[3] = 0;
 3ba:	4a48      	ldr	r2, [pc, #288]	; (4dc <func_chk+0x4dc>)
D:\sunny\stm32\therme\Project\src/main.c:1583
        }
      if (delay_fin[3] == 2)
        {
          if (temp_p1 < 22)
            {
              delay_fin[3] = 0;
 3bc:	70f3      	strb	r3, [r6, #3]
D:\sunny\stm32\therme\Project\src/main.c:1584
              delh[3] = 0;
 3be:	6812      	ldr	r2, [r2, #0]
 3c0:	70d3      	strb	r3, [r2, #3]
D:\sunny\stm32\therme\Project\src/main.c:1585
              delm[3] = 0;
 3c2:	4a47      	ldr	r2, [pc, #284]	; (4e0 <func_chk+0x4e0>)
 3c4:	6812      	ldr	r2, [r2, #0]
 3c6:	70d3      	strb	r3, [r2, #3]
D:\sunny\stm32\therme\Project\src/main.c:1586
              dels[3] = 0;
 3c8:	4a46      	ldr	r2, [pc, #280]	; (4e4 <func_chk+0x4e4>)
 3ca:	6812      	ldr	r2, [r2, #0]
 3cc:	70d3      	strb	r3, [r2, #3]
D:\sunny\stm32\therme\Project\src/main.c:1590
            }

        }
      if (delay_fin[3] == 3) // delay com on
 3ce:	6823      	ldr	r3, [r4, #0]
D:\sunny\stm32\therme\Project\src/main.c:1594
        {
          start = 3;
        }
	if (temp_p1 < ebuff[19])
 3d0:	f995 0013 	ldrsb.w	r0, [r5, #19]
D:\sunny\stm32\therme\Project\src/main.c:1590
              delm[3] = 0;
              dels[3] = 0;
            }

        }
      if (delay_fin[3] == 3) // delay com on
 3d4:	78db      	ldrb	r3, [r3, #3]
 3d6:	2b03      	cmp	r3, #3
D:\sunny\stm32\therme\Project\src/main.c:1592
        {
          start = 3;
 3d8:	bf08      	it	eq
 3da:	703b      	strbeq	r3, [r7, #0]
D:\sunny\stm32\therme\Project\src/main.c:1594
        }
	if (temp_p1 < ebuff[19])
 3dc:	f7ff fffe 	bl	0 <__aeabi_i2d>
 3e0:	4602      	mov	r2, r0
 3e2:	460b      	mov	r3, r1
 3e4:	e9d8 0100 	ldrd	r0, r1, [r8]
 3e8:	f7ff fffe 	bl	0 <__aeabi_dcmplt>
 3ec:	b320      	cbz	r0, 438 <func_chk+0x438>
D:\sunny\stm32\therme\Project\src/main.c:1596
            {
              locks = 1;
 3ee:	4b40      	ldr	r3, [pc, #256]	; (4f0 <func_chk+0x4f0>)
 3f0:	2201      	movs	r2, #1
 3f2:	f883 2284 	strb.w	r2, [r3, #644]	; 0x284
 3f6:	e01f      	b.n	438 <func_chk+0x438>
D:\sunny\stm32\therme\Project\src/main.c:1602
            }
    }

  /*e  start  ******************************************************/

  else if (start == 3) // stop
 3f8:	783b      	ldrb	r3, [r7, #0]
 3fa:	2b03      	cmp	r3, #3
 3fc:	d10a      	bne.n	414 <func_chk+0x414>
D:\sunny\stm32\therme\Project\src/main.c:1604
    {
      clear_delayfn();
 3fe:	f7ff fffe 	bl	0 <func_chk>
D:\sunny\stm32\therme\Project\src/main.c:1606
      start = 0;
      modes = 0;
 402:	4b3c      	ldr	r3, [pc, #240]	; (4f4 <func_chk+0x4f4>)
D:\sunny\stm32\therme\Project\src/main.c:1605
  /*e  start  ******************************************************/

  else if (start == 3) // stop
    {
      clear_delayfn();
      start = 0;
 404:	2000      	movs	r0, #0
D:\sunny\stm32\therme\Project\src/main.c:1606
      modes = 0;
 406:	7018      	strb	r0, [r3, #0]
D:\sunny\stm32\therme\Project\src/main.c:1607
      sdoor = 0;
 408:	4b3b      	ldr	r3, [pc, #236]	; (4f8 <func_chk+0x4f8>)
D:\sunny\stm32\therme\Project\src/main.c:1605
  /*e  start  ******************************************************/

  else if (start == 3) // stop
    {
      clear_delayfn();
      start = 0;
 40a:	7038      	strb	r0, [r7, #0]
D:\sunny\stm32\therme\Project\src/main.c:1607
      modes = 0;
      sdoor = 0;
 40c:	7018      	strb	r0, [r3, #0]
D:\sunny\stm32\therme\Project\src/main.c:1616
       delh[i] = 0;
       delm[i] = 0;
       dels[i] = 0;

       }*/
      outpp(0);
 40e:	f7ff fffe 	bl	0 <func_chk>
 412:	e011      	b.n	438 <func_chk+0x438>
D:\sunny\stm32\therme\Project\src/main.c:1618
    }
  else if (start == 5)  // start
 414:	783b      	ldrb	r3, [r7, #0]
 416:	2b05      	cmp	r3, #5
 418:	d10e      	bne.n	438 <func_chk+0x438>
D:\sunny\stm32\therme\Project\src/main.c:1620
    {
      clear_delayfn();
 41a:	f7ff fffe 	bl	0 <func_chk>
D:\sunny\stm32\therme\Project\src/main.c:1621
      modes = 0;
 41e:	4b35      	ldr	r3, [pc, #212]	; (4f4 <func_chk+0x4f4>)
 420:	2200      	movs	r2, #0
D:\sunny\stm32\therme\Project\src/main.c:1622
      delay_fin[0] = 1;
 422:	6821      	ldr	r1, [r4, #0]
D:\sunny\stm32\therme\Project\src/main.c:1621
      outpp(0);
    }
  else if (start == 5)  // start
    {
      clear_delayfn();
      modes = 0;
 424:	701a      	strb	r2, [r3, #0]
D:\sunny\stm32\therme\Project\src/main.c:1622
      delay_fin[0] = 1;
 426:	2301      	movs	r3, #1
 428:	700b      	strb	r3, [r1, #0]
D:\sunny\stm32\therme\Project\src/main.c:1624
      start = 1;
	  err_c[2] = 0;
 42a:	492f      	ldr	r1, [pc, #188]	; (4e8 <func_chk+0x4e8>)
D:\sunny\stm32\therme\Project\src/main.c:1623
  else if (start == 5)  // start
    {
      clear_delayfn();
      modes = 0;
      delay_fin[0] = 1;
      start = 1;
 42c:	703b      	strb	r3, [r7, #0]
D:\sunny\stm32\therme\Project\src/main.c:1624
	  err_c[2] = 0;
 42e:	708a      	strb	r2, [r1, #2]
D:\sunny\stm32\therme\Project\src/main.c:1625
	  err_c[3] = 0;
 430:	70ca      	strb	r2, [r1, #3]
D:\sunny\stm32\therme\Project\src/main.c:1626
	  locks = 1;
 432:	4a2f      	ldr	r2, [pc, #188]	; (4f0 <func_chk+0x4f0>)
 434:	f882 3284 	strb.w	r3, [r2, #644]	; 0x284
D:\sunny\stm32\therme\Project\src/main.c:1629
    }

  if (delay_fin[1] == 1) // delay com off
 438:	6823      	ldr	r3, [r4, #0]
 43a:	785b      	ldrb	r3, [r3, #1]
 43c:	2b01      	cmp	r3, #1
 43e:	d111      	bne.n	464 <func_chk+0x464>
D:\sunny\stm32\therme\Project\src/main.c:1631
    {
      delh[1] = 0;
 440:	4b26      	ldr	r3, [pc, #152]	; (4dc <func_chk+0x4dc>)
 442:	2200      	movs	r2, #0
 444:	681b      	ldr	r3, [r3, #0]
 446:	705a      	strb	r2, [r3, #1]
D:\sunny\stm32\therme\Project\src/main.c:1632
      delm[1] = ebuff[23]-1;
 448:	4a21      	ldr	r2, [pc, #132]	; (4d0 <func_chk+0x4d0>)
 44a:	4b25      	ldr	r3, [pc, #148]	; (4e0 <func_chk+0x4e0>)
 44c:	7dd2      	ldrb	r2, [r2, #23]
 44e:	681b      	ldr	r3, [r3, #0]
 450:	3a01      	subs	r2, #1
 452:	705a      	strb	r2, [r3, #1]
D:\sunny\stm32\therme\Project\src/main.c:1633
      dels[1] = 59;
 454:	4b23      	ldr	r3, [pc, #140]	; (4e4 <func_chk+0x4e4>)
 456:	223b      	movs	r2, #59	; 0x3b
 458:	681b      	ldr	r3, [r3, #0]
 45a:	705a      	strb	r2, [r3, #1]
D:\sunny\stm32\therme\Project\src/main.c:1634
      delay_fin[1] = 2;
 45c:	4b1b      	ldr	r3, [pc, #108]	; (4cc <func_chk+0x4cc>)
 45e:	3a39      	subs	r2, #57	; 0x39
 460:	681b      	ldr	r3, [r3, #0]
 462:	705a      	strb	r2, [r3, #1]
D:\sunny\stm32\therme\Project\src/main.c:1638
      //	outpp(eep_b[mod+19]);
    }

  if (start == 1)
 464:	783b      	ldrb	r3, [r7, #0]
 466:	2b01      	cmp	r3, #1
 468:	d125      	bne.n	4b6 <func_chk+0x4b6>
D:\sunny\stm32\therme\Project\src/main.c:1640
    {
  if (sdoor == 1) // door open
 46a:	4b23      	ldr	r3, [pc, #140]	; (4f8 <func_chk+0x4f8>)
 46c:	781d      	ldrb	r5, [r3, #0]
 46e:	2d01      	cmp	r5, #1
 470:	d117      	bne.n	4a2 <func_chk+0x4a2>
D:\sunny\stm32\therme\Project\src/main.c:1643
    {

      if (delay_fin[2] == 0)
 472:	6823      	ldr	r3, [r4, #0]
 474:	789b      	ldrb	r3, [r3, #2]
 476:	b9f3      	cbnz	r3, 4b6 <func_chk+0x4b6>
D:\sunny\stm32\therme\Project\src/main.c:1645
        {
          buf_port = GPIO_ReadInputData(GPIOE);
 478:	4810      	ldr	r0, [pc, #64]	; (4bc <func_chk+0x4bc>)
 47a:	f7ff fffe 	bl	0 <GPIO_ReadInputData>
 47e:	4b10      	ldr	r3, [pc, #64]	; (4c0 <func_chk+0x4c0>)
 480:	8018      	strh	r0, [r3, #0]
D:\sunny\stm32\therme\Project\src/main.c:1646
          out_p = ebuff[43] & (buf_port >> 9);//26
 482:	4b13      	ldr	r3, [pc, #76]	; (4d0 <func_chk+0x4d0>)
 484:	f893 302b 	ldrb.w	r3, [r3, #43]	; 0x2b
 488:	ea03 2050 	and.w	r0, r3, r0, lsr #9
 48c:	4b0d      	ldr	r3, [pc, #52]	; (4c4 <func_chk+0x4c4>)
 48e:	7018      	strb	r0, [r3, #0]
D:\sunny\stm32\therme\Project\src/main.c:1647
          outpp(out_p);
 490:	f7ff fffe 	bl	0 <func_chk>
D:\sunny\stm32\therme\Project\src/main.c:1648
          locks_d = 1;
 494:	4b0c      	ldr	r3, [pc, #48]	; (4c8 <func_chk+0x4c8>)
 496:	701d      	strb	r5, [r3, #0]
D:\sunny\stm32\therme\Project\src/main.c:1650
          //locks = 0;
          delay_fin[2] = 1;
 498:	4b0c      	ldr	r3, [pc, #48]	; (4cc <func_chk+0x4cc>)
 49a:	681b      	ldr	r3, [r3, #0]
 49c:	709d      	strb	r5, [r3, #2]
 49e:	e8bd 8ff8 	ldmia.w	sp!, {r3, r4, r5, r6, r7, r8, r9, sl, fp, pc}
D:\sunny\stm32\therme\Project\src/main.c:1656

        }

      //out_on(k5);
    }
  else if (sdoor == 0)
 4a2:	b945      	cbnz	r5, 4b6 <func_chk+0x4b6>
D:\sunny\stm32\therme\Project\src/main.c:1659
    {
      //outpp();
      delh[2] = 0;
 4a4:	4b0d      	ldr	r3, [pc, #52]	; (4dc <func_chk+0x4dc>)
 4a6:	681b      	ldr	r3, [r3, #0]
 4a8:	709d      	strb	r5, [r3, #2]
D:\sunny\stm32\therme\Project\src/main.c:1660
      delm[2] = 0;
 4aa:	4b0d      	ldr	r3, [pc, #52]	; (4e0 <func_chk+0x4e0>)
 4ac:	681b      	ldr	r3, [r3, #0]
 4ae:	709d      	strb	r5, [r3, #2]
D:\sunny\stm32\therme\Project\src/main.c:1661
      dels[2] = 0;
 4b0:	4b0c      	ldr	r3, [pc, #48]	; (4e4 <func_chk+0x4e4>)
 4b2:	681b      	ldr	r3, [r3, #0]
 4b4:	709d      	strb	r5, [r3, #2]
 4b6:	e8bd 8ff8 	ldmia.w	sp!, {r3, r4, r5, r6, r7, r8, r9, sl, fp, pc}
 4ba:	bf00      	nop
 4bc:	40011800 	.word	0x40011800
	...
 4ec:	40360000 	.word	0x40360000
	...

Disassembly of section .text.test_i2c:

00000000 <test_i2c>:
test_i2c():
D:\sunny\stm32\therme\Project\src/main.c:2005

}

void
test_i2c()
{
   0:	f7ffb570 	.word	0xf7ffb570
D:\sunny\stm32\therme\Project\src/main.c:2030
   eep_buffer[6] = 0x7F;
   eep_buffer[7] = 0xFF;
   I2C_EE_BufferWrite(eep_buffer, 0x00,8);
   I2C_EE_BufferWrite(eep_buffer, 0x10,8); 				// Write 8 Byte From Address 0x10...
   */
  I2C_EE_WaitEepromStandbyState();
   4:	fffe 4c0d 	vdup.16	d20, d13[3]
D:\sunny\stm32\therme\Project\src/main.c:2004
  out_write(val);

}

void
test_i2c()
   8:	f104 0608 	add.w	r6, r4, #8
   c:	4625      	mov	r5, r4
D:\sunny\stm32\therme\Project\src/main.c:2034
   */
  I2C_EE_WaitEepromStandbyState();
  // I2C_EE_BufferRead(eep_buffer,0x00,8);
  for (i = 0; i < 8; i++) // Read 8 Byte to Buffer
    {
      out_write(eep_buffer[i]);
   e:	7820      	ldrb	r0, [r4, #0]
  10:	f7ff fffe 	bl	0 <out_write>
D:\sunny\stm32\therme\Project\src/main.c:2035
      Delay1(250);
  14:	20fa      	movs	r0, #250	; 0xfa
  16:	f7ff fffe 	bl	0 <test_i2c>
D:\sunny\stm32\therme\Project\src/main.c:2036
      set_temp(eep_buffer[i]);
  1a:	f814 0b01 	ldrb.w	r0, [r4], #1
  1e:	f7ff fffe 	bl	0 <test_i2c>
D:\sunny\stm32\therme\Project\src/main.c:2032
   I2C_EE_BufferWrite(eep_buffer, 0x00,8);
   I2C_EE_BufferWrite(eep_buffer, 0x10,8); 				// Write 8 Byte From Address 0x10...
   */
  I2C_EE_WaitEepromStandbyState();
  // I2C_EE_BufferRead(eep_buffer,0x00,8);
  for (i = 0; i < 8; i++) // Read 8 Byte to Buffer
  22:	42b4      	cmp	r4, r6
  24:	d1f3      	bne.n	e <test_i2c+0xe>
  26:	2400      	movs	r4, #0
D:\sunny\stm32\therme\Project\src/main.c:2044
  /* Read from I2C EEPROM from EEPROM_ReadAddress1 */

//    I2C_EE_BufferRead(eep_buffer,0x10,8);
  for (i = 0; i < 8; i++) // Read 8 Byte to Buffer
    {
      out_write(eep_buffer[i]);
  28:	5d28      	ldrb	r0, [r5, r4]
  2a:	f7ff fffe 	bl	0 <out_write>
D:\sunny\stm32\therme\Project\src/main.c:2042
    }

  /* Read from I2C EEPROM from EEPROM_ReadAddress1 */

//    I2C_EE_BufferRead(eep_buffer,0x10,8);
  for (i = 0; i < 8; i++) // Read 8 Byte to Buffer
  2e:	3401      	adds	r4, #1
D:\sunny\stm32\therme\Project\src/main.c:2045
    {
      out_write(eep_buffer[i]);
      Delay1(250);
  30:	20fa      	movs	r0, #250	; 0xfa
  32:	f7ff fffe 	bl	0 <test_i2c>
D:\sunny\stm32\therme\Project\src/main.c:2042
    }

  /* Read from I2C EEPROM from EEPROM_ReadAddress1 */

//    I2C_EE_BufferRead(eep_buffer,0x10,8);
  for (i = 0; i < 8; i++) // Read 8 Byte to Buffer
  36:	2c08      	cmp	r4, #8
  38:	d1f6      	bne.n	28 <test_i2c+0x28>
D:\sunny\stm32\therme\Project\src/main.c:2048
    {
      out_write(eep_buffer[i]);
      Delay1(250);
    }

}
  3a:	bd70      	pop	{r4, r5, r6, pc}
  3c:	00000000 	.word	0x00000000

Disassembly of section .text.page_recv:

00000000 <page_recv>:
page_recv():
D:\sunny\stm32\therme\Project\src/main.c:2053
// This function ll be called by the webclient page when the page is received
void page_recv(u8_t num, hc_errormsg errormsg, char * page, u16_t len)
{

}
   0:	4770      	bx	lr

Disassembly of section .text.TIM3_IRQHandler:

00000000 <TIM3_IRQHandler>:
TIM3_IRQHandler():
D:\sunny\stm32\therme\Project\src/main.c:2056
void
TIM3_IRQHandler(void)
{
   0:	b570      	push	{r4, r5, r6, lr}
D:\sunny\stm32\therme\Project\src/main.c:2058

  if (TIM_GetITStatus(TIM3, TIM_IT_CC1) != RESET)
   2:	4870      	ldr	r0, [pc, #448]	; (1c4 <TIM3_IRQHandler+0x1c4>)
   4:	2102      	movs	r1, #2
   6:	f7ff fffe 	bl	0 <TIM_GetITStatus>
   a:	2800      	cmp	r0, #0
   c:	f000 8114 	beq.w	238 <TIM3_IRQHandler+0x238>
D:\sunny\stm32\therme\Project\src/main.c:2064
    {
      TIM_ClearITPendingBit(TIM3, TIM_IT_CC1);
      /* Pin PC.06 toggling with frequency = 73.24 Hz */
      // set_temp();
      // if( td1>=99) td1=-99;
      if (eemodes == 1)
  10:	4c6d      	ldr	r4, [pc, #436]	; (1c8 <TIM3_IRQHandler+0x1c8>)
D:\sunny\stm32\therme\Project\src/main.c:2060
TIM3_IRQHandler(void)
{

  if (TIM_GetITStatus(TIM3, TIM_IT_CC1) != RESET)
    {
      TIM_ClearITPendingBit(TIM3, TIM_IT_CC1);
  12:	2102      	movs	r1, #2
  14:	486b      	ldr	r0, [pc, #428]	; (1c4 <TIM3_IRQHandler+0x1c4>)
  16:	f7ff fffe 	bl	0 <TIM_ClearITPendingBit>
D:\sunny\stm32\therme\Project\src/main.c:2064
      /* Pin PC.06 toggling with frequency = 73.24 Hz */
      // set_temp();
      // if( td1>=99) td1=-99;
      if (eemodes == 1)
  1a:	7823      	ldrb	r3, [r4, #0]
  1c:	2b01      	cmp	r3, #1
  1e:	d101      	bne.n	24 <TIM3_IRQHandler+0x24>
D:\sunny\stm32\therme\Project\src/main.c:2067
        {
          //eemode(mod);
          eemodes = 0;
  20:	3b01      	subs	r3, #1
  22:	e017      	b.n	54 <TIM3_IRQHandler+0x54>
D:\sunny\stm32\therme\Project\src/main.c:2069
        }
      else if (eemodes == 10)
  24:	2b0a      	cmp	r3, #10
  26:	d109      	bne.n	3c <TIM3_IRQHandler+0x3c>
D:\sunny\stm32\therme\Project\src/main.c:2074
        {
          //I2C_EE_BufferWrite(ebuff,0x01,30);
          //I2C_EE_BufferRead(ebuff,0x01,30);
         
          set_ebuff(ebuff);
  28:	4868      	ldr	r0, [pc, #416]	; (1cc <TIM3_IRQHandler+0x1cc>)
  2a:	f7ff fffe 	bl	0 <TIM3_IRQHandler>
D:\sunny\stm32\therme\Project\src/main.c:2075
          read_ebuff(ebuff);
  2e:	4867      	ldr	r0, [pc, #412]	; (1a0 <TIM3_IRQHandler+0x1a0>)
  30:	f7ff fffe 	bl	0 <TIM3_IRQHandler>
D:\sunny\stm32\therme\Project\src/main.c:2076
		  set_date(Ds1302SendBuf);
  34:	4866      	ldr	r0, [pc, #408]	; (19c <TIM3_IRQHandler+0x19c>)
  36:	f7ff fffe 	bl	0 <TIM3_IRQHandler>
  3a:	e00a      	b.n	52 <TIM3_IRQHandler+0x52>
D:\sunny\stm32\therme\Project\src/main.c:2079
          eemodes = 0;
        }
	 else if (eemodes == 14)
  3c:	2b0e      	cmp	r3, #14
  3e:	d103      	bne.n	48 <TIM3_IRQHandler+0x48>
D:\sunny\stm32\therme\Project\src/main.c:2084
        {
          //I2C_EE_BufferWrite(ebuff,0x01,30);
          //I2C_EE_BufferRead(ebuff,0x01,30);
         
          set_ebuff(ebuff);
  40:	4862      	ldr	r0, [pc, #392]	; (1cc <TIM3_IRQHandler+0x1cc>)
  42:	f7ff fffe 	bl	0 <TIM3_IRQHandler>
  46:	e001      	b.n	4c <TIM3_IRQHandler+0x4c>
D:\sunny\stm32\therme\Project\src/main.c:2088
          read_ebuff(ebuff);
          eemodes = 0;
        }
      else if (eemodes == 11)
  48:	2b0b      	cmp	r3, #11
  4a:	d104      	bne.n	56 <TIM3_IRQHandler+0x56>
D:\sunny\stm32\therme\Project\src/main.c:2090
        {
          read_ebuff(ebuff);
  4c:	485f      	ldr	r0, [pc, #380]	; (1cc <TIM3_IRQHandler+0x1cc>)
  4e:	f7ff fffe 	bl	0 <TIM3_IRQHandler>
D:\sunny\stm32\therme\Project\src/main.c:2091
          eemodes = 0;
  52:	2300      	movs	r3, #0
  54:	7023      	strb	r3, [r4, #0]
D:\sunny\stm32\therme\Project\src/main.c:2094
        }
		
		if(mode_dis == 1 )
  56:	4a5f      	ldr	r2, [pc, #380]	; (1d4 <TIM3_IRQHandler+0x1d4>)
  58:	4b5f      	ldr	r3, [pc, #380]	; (1d8 <TIM3_IRQHandler+0x1d8>)
  5a:	7811      	ldrb	r1, [r2, #0]
  5c:	2901      	cmp	r1, #1
  5e:	d114      	bne.n	8a <TIM3_IRQHandler+0x8a>
D:\sunny\stm32\therme\Project\src/main.c:2097
		{
			
			dis_delay++;
  60:	495e      	ldr	r1, [pc, #376]	; (1dc <TIM3_IRQHandler+0x1dc>)
  62:	7808      	ldrb	r0, [r1, #0]
  64:	3001      	adds	r0, #1
  66:	b2c0      	uxtb	r0, r0
D:\sunny\stm32\therme\Project\src/main.c:2098
			if(dis_delay >= 5)
  68:	2804      	cmp	r0, #4
D:\sunny\stm32\therme\Project\src/main.c:2097
        }
		
		if(mode_dis == 1 )
		{
			
			dis_delay++;
  6a:	7008      	strb	r0, [r1, #0]
D:\sunny\stm32\therme\Project\src/main.c:2098
			if(dis_delay >= 5)
  6c:	d902      	bls.n	74 <TIM3_IRQHandler+0x74>
D:\sunny\stm32\therme\Project\src/main.c:2100
			{
				mode_dis = 0;
  6e:	2000      	movs	r0, #0
  70:	7010      	strb	r0, [r2, #0]
D:\sunny\stm32\therme\Project\src/main.c:2101
				dis_delay =0;
  72:	7008      	strb	r0, [r1, #0]
D:\sunny\stm32\therme\Project\src/main.c:2103
			}
			 if(err_c[1] == 1)	
  74:	785b      	ldrb	r3, [r3, #1]
  76:	2b01      	cmp	r3, #1
  78:	d13d      	bne.n	f6 <TIM3_IRQHandler+0xf6>
D:\sunny\stm32\therme\Project\src/main.c:2105
			{
					temp_1[0] = 14;
  7a:	4b59      	ldr	r3, [pc, #356]	; (1e0 <TIM3_IRQHandler+0x1e0>)
  7c:	220e      	movs	r2, #14
  7e:	701a      	strb	r2, [r3, #0]
D:\sunny\stm32\therme\Project\src/main.c:2106
					temp_1[1] = 2;
  80:	3a0c      	subs	r2, #12
  82:	705a      	strb	r2, [r3, #1]
D:\sunny\stm32\therme\Project\src/main.c:2107
					temp_1[2] = 19;
  84:	3211      	adds	r2, #17
  86:	709a      	strb	r2, [r3, #2]
  88:	e035      	b.n	f6 <TIM3_IRQHandler+0xf6>
D:\sunny\stm32\therme\Project\src/main.c:2112
			}	
						
			show_seg1(temp_1);
		}
		else if(mode_dis == 5)
  8a:	2905      	cmp	r1, #5
  8c:	d119      	bne.n	c2 <TIM3_IRQHandler+0xc2>
D:\sunny\stm32\therme\Project\src/main.c:2114
		{
			dis_delay++;
  8e:	4953      	ldr	r1, [pc, #332]	; (1dc <TIM3_IRQHandler+0x1dc>)
  90:	7808      	ldrb	r0, [r1, #0]
  92:	3001      	adds	r0, #1
  94:	b2c0      	uxtb	r0, r0
D:\sunny\stm32\therme\Project\src/main.c:2115
			if(dis_delay >= 2)
  96:	2801      	cmp	r0, #1
D:\sunny\stm32\therme\Project\src/main.c:2114
						
			show_seg1(temp_1);
		}
		else if(mode_dis == 5)
		{
			dis_delay++;
  98:	7008      	strb	r0, [r1, #0]
D:\sunny\stm32\therme\Project\src/main.c:2115
			if(dis_delay >= 2)
  9a:	d902      	bls.n	a2 <TIM3_IRQHandler+0xa2>
D:\sunny\stm32\therme\Project\src/main.c:2117
			{
				mode_dis  = 0;
  9c:	2000      	movs	r0, #0
  9e:	7010      	strb	r0, [r2, #0]
D:\sunny\stm32\therme\Project\src/main.c:2118
				dis_delay = 0;
  a0:	7008      	strb	r0, [r1, #0]
D:\sunny\stm32\therme\Project\src/main.c:2120
			}
			temp_1[0] = 0;
  a2:	4a4f      	ldr	r2, [pc, #316]	; (1e0 <TIM3_IRQHandler+0x1e0>)
D:\sunny\stm32\therme\Project\src/main.c:2123
			temp_1[1] = 15;
			temp_1[2] = 15;
			 if(err_c[1] == 1)	
  a4:	785b      	ldrb	r3, [r3, #1]
D:\sunny\stm32\therme\Project\src/main.c:2120
			if(dis_delay >= 2)
			{
				mode_dis  = 0;
				dis_delay = 0;
			}
			temp_1[0] = 0;
  a6:	2100      	movs	r1, #0
  a8:	7011      	strb	r1, [r2, #0]
D:\sunny\stm32\therme\Project\src/main.c:2121
			temp_1[1] = 15;
  aa:	310f      	adds	r1, #15
D:\sunny\stm32\therme\Project\src/main.c:2123
			temp_1[2] = 15;
			 if(err_c[1] == 1)	
  ac:	2b01      	cmp	r3, #1
D:\sunny\stm32\therme\Project\src/main.c:2121
			{
				mode_dis  = 0;
				dis_delay = 0;
			}
			temp_1[0] = 0;
			temp_1[1] = 15;
  ae:	7051      	strb	r1, [r2, #1]
D:\sunny\stm32\therme\Project\src/main.c:2122
			temp_1[2] = 15;
  b0:	7091      	strb	r1, [r2, #2]
D:\sunny\stm32\therme\Project\src/main.c:2123
			 if(err_c[1] == 1)	
  b2:	d120      	bne.n	f6 <TIM3_IRQHandler+0xf6>
D:\sunny\stm32\therme\Project\src/main.c:2125
			{
					temp_1[0] = 14;
  b4:	330d      	adds	r3, #13
  b6:	7013      	strb	r3, [r2, #0]
D:\sunny\stm32\therme\Project\src/main.c:2126
					temp_1[1] = 2;
  b8:	3b0c      	subs	r3, #12
  ba:	7053      	strb	r3, [r2, #1]
D:\sunny\stm32\therme\Project\src/main.c:2127
					temp_1[2] = 19;
  bc:	3311      	adds	r3, #17
  be:	7093      	strb	r3, [r2, #2]
  c0:	e019      	b.n	f6 <TIM3_IRQHandler+0xf6>
D:\sunny\stm32\therme\Project\src/main.c:2132
			}	
						
			show_seg1(temp_1);
		}	
		else if(mode_dis == 4)
  c2:	2904      	cmp	r1, #4
  c4:	d119      	bne.n	fa <TIM3_IRQHandler+0xfa>
D:\sunny\stm32\therme\Project\src/main.c:2134
		{
			dis_delay++;
  c6:	4945      	ldr	r1, [pc, #276]	; (1dc <TIM3_IRQHandler+0x1dc>)
  c8:	7808      	ldrb	r0, [r1, #0]
  ca:	3001      	adds	r0, #1
  cc:	b2c0      	uxtb	r0, r0
D:\sunny\stm32\therme\Project\src/main.c:2135
			if(dis_delay >= 2)
  ce:	2801      	cmp	r0, #1
D:\sunny\stm32\therme\Project\src/main.c:2134
						
			show_seg1(temp_1);
		}	
		else if(mode_dis == 4)
		{
			dis_delay++;
  d0:	7008      	strb	r0, [r1, #0]
D:\sunny\stm32\therme\Project\src/main.c:2135
			if(dis_delay >= 2)
  d2:	d902      	bls.n	da <TIM3_IRQHandler+0xda>
D:\sunny\stm32\therme\Project\src/main.c:2137
			{
				mode_dis  = 0;
  d4:	2000      	movs	r0, #0
  d6:	7010      	strb	r0, [r2, #0]
D:\sunny\stm32\therme\Project\src/main.c:2138
				dis_delay = 0;
  d8:	7008      	strb	r0, [r1, #0]
D:\sunny\stm32\therme\Project\src/main.c:2141
			}
			
			temp_1[0] = 0;
  da:	4a41      	ldr	r2, [pc, #260]	; (1e0 <TIM3_IRQHandler+0x1e0>)
  dc:	2100      	movs	r1, #0
D:\sunny\stm32\therme\Project\src/main.c:2146
			temp_1[1] = 18;
			temp_1[2] = 19;
			
			
			 if(err_c[1] == 1)	
  de:	785b      	ldrb	r3, [r3, #1]
D:\sunny\stm32\therme\Project\src/main.c:2141
			{
				mode_dis  = 0;
				dis_delay = 0;
			}
			
			temp_1[0] = 0;
  e0:	7011      	strb	r1, [r2, #0]
D:\sunny\stm32\therme\Project\src/main.c:2142
			temp_1[1] = 18;
  e2:	3112      	adds	r1, #18
  e4:	7051      	strb	r1, [r2, #1]
D:\sunny\stm32\therme\Project\src/main.c:2143
			temp_1[2] = 19;
  e6:	3101      	adds	r1, #1
D:\sunny\stm32\therme\Project\src/main.c:2146
			
			
			 if(err_c[1] == 1)	
  e8:	2b01      	cmp	r3, #1
D:\sunny\stm32\therme\Project\src/main.c:2143
				dis_delay = 0;
			}
			
			temp_1[0] = 0;
			temp_1[1] = 18;
			temp_1[2] = 19;
  ea:	7091      	strb	r1, [r2, #2]
D:\sunny\stm32\therme\Project\src/main.c:2146
			
			
			 if(err_c[1] == 1)	
  ec:	d103      	bne.n	f6 <TIM3_IRQHandler+0xf6>
D:\sunny\stm32\therme\Project\src/main.c:2148
			{
					temp_1[0] = 14;
  ee:	330d      	adds	r3, #13
  f0:	7013      	strb	r3, [r2, #0]
D:\sunny\stm32\therme\Project\src/main.c:2149
					temp_1[1] = 2;
  f2:	3b0c      	subs	r3, #12
  f4:	7053      	strb	r3, [r2, #1]
D:\sunny\stm32\therme\Project\src/main.c:2153
					temp_1[2] = 19;
			}	
						
			show_seg1(temp_1);
  f6:	483a      	ldr	r0, [pc, #232]	; (1e0 <TIM3_IRQHandler+0x1e0>)
  f8:	e029      	b.n	14e <TIM3_IRQHandler+0x14e>
D:\sunny\stm32\therme\Project\src/main.c:2157
		}	
		else
		{		
			if(err_c[0] == 1)	
  fa:	781a      	ldrb	r2, [r3, #0]
  fc:	2a01      	cmp	r2, #1
  fe:	d105      	bne.n	10c <TIM3_IRQHandler+0x10c>
D:\sunny\stm32\therme\Project\src/main.c:2159
			{
				temp_[0] = 14;
 100:	4b38      	ldr	r3, [pc, #224]	; (1e4 <TIM3_IRQHandler+0x1e4>)
 102:	210e      	movs	r1, #14
D:\sunny\stm32\therme\Project\src/main.c:2160
				temp_[1] = 1;
 104:	705a      	strb	r2, [r3, #1]
D:\sunny\stm32\therme\Project\src/main.c:2159
		}	
		else
		{		
			if(err_c[0] == 1)	
			{
				temp_[0] = 14;
 106:	7019      	strb	r1, [r3, #0]
D:\sunny\stm32\therme\Project\src/main.c:2161
				temp_[1] = 1;
				temp_[2] = 19;
 108:	3212      	adds	r2, #18
 10a:	e01e      	b.n	14a <TIM3_IRQHandler+0x14a>
D:\sunny\stm32\therme\Project\src/main.c:2164
				
			}
			else if(err_c[1] == 1)	
 10c:	785a      	ldrb	r2, [r3, #1]
 10e:	2a01      	cmp	r2, #1
 110:	d112      	bne.n	138 <TIM3_IRQHandler+0x138>
D:\sunny\stm32\therme\Project\src/main.c:2166
			{
				dis_delay++;
 112:	4b32      	ldr	r3, [pc, #200]	; (1dc <TIM3_IRQHandler+0x1dc>)
 114:	781a      	ldrb	r2, [r3, #0]
 116:	3201      	adds	r2, #1
 118:	b2d2      	uxtb	r2, r2
D:\sunny\stm32\therme\Project\src/main.c:2167
				if(dis_delay >= 100)
 11a:	2a63      	cmp	r2, #99	; 0x63
D:\sunny\stm32\therme\Project\src/main.c:2166
				temp_[2] = 19;
				
			}
			else if(err_c[1] == 1)	
			{
				dis_delay++;
 11c:	701a      	strb	r2, [r3, #0]
D:\sunny\stm32\therme\Project\src/main.c:2167
				if(dis_delay >= 100)
 11e:	d915      	bls.n	14c <TIM3_IRQHandler+0x14c>
D:\sunny\stm32\therme\Project\src/main.c:2169
				{
					temp_[0] = 14;
 120:	4930      	ldr	r1, [pc, #192]	; (1e4 <TIM3_IRQHandler+0x1e4>)
 122:	200e      	movs	r0, #14
 124:	7008      	strb	r0, [r1, #0]
D:\sunny\stm32\therme\Project\src/main.c:2170
					temp_[1] = 2;
 126:	380c      	subs	r0, #12
 128:	7048      	strb	r0, [r1, #1]
D:\sunny\stm32\therme\Project\src/main.c:2171
					temp_[2] = 19;
 12a:	3011      	adds	r0, #17
D:\sunny\stm32\therme\Project\src/main.c:2172
					if(dis_delay >=108) dis_delay = 0;
 12c:	2a6b      	cmp	r2, #107	; 0x6b
D:\sunny\stm32\therme\Project\src/main.c:2171
				dis_delay++;
				if(dis_delay >= 100)
				{
					temp_[0] = 14;
					temp_[1] = 2;
					temp_[2] = 19;
 12e:	7088      	strb	r0, [r1, #2]
D:\sunny\stm32\therme\Project\src/main.c:2172
					if(dis_delay >=108) dis_delay = 0;
 130:	d90c      	bls.n	14c <TIM3_IRQHandler+0x14c>
 132:	2200      	movs	r2, #0
 134:	701a      	strb	r2, [r3, #0]
 136:	e009      	b.n	14c <TIM3_IRQHandler+0x14c>
D:\sunny\stm32\therme\Project\src/main.c:2176
				}
				
			}	
			else if(err_c[2] == 1)	
 138:	789b      	ldrb	r3, [r3, #2]
 13a:	2b01      	cmp	r3, #1
 13c:	d106      	bne.n	14c <TIM3_IRQHandler+0x14c>
D:\sunny\stm32\therme\Project\src/main.c:2178
			{
				temp_[0] = 14;
 13e:	4b29      	ldr	r3, [pc, #164]	; (1e4 <TIM3_IRQHandler+0x1e4>)
 140:	220e      	movs	r2, #14
 142:	701a      	strb	r2, [r3, #0]
D:\sunny\stm32\therme\Project\src/main.c:2179
				temp_[1] = 3;
 144:	3a0b      	subs	r2, #11
 146:	705a      	strb	r2, [r3, #1]
D:\sunny\stm32\therme\Project\src/main.c:2180
				temp_[2] = 19;
 148:	3210      	adds	r2, #16
 14a:	709a      	strb	r2, [r3, #2]
D:\sunny\stm32\therme\Project\src/main.c:2184
				
			}	
			
			show_seg1(temp_);
 14c:	4825      	ldr	r0, [pc, #148]	; (1e4 <TIM3_IRQHandler+0x1e4>)
 14e:	f7ff fffe 	bl	0 <TIM3_IRQHandler>
D:\sunny\stm32\therme\Project\src/main.c:2188
		}		  
        

      if (!(GPIO_ReadInputDataBit(GPIOD, GPIO_Pin_4))) // door open event
 152:	4825      	ldr	r0, [pc, #148]	; (1e8 <TIM3_IRQHandler+0x1e8>)
 154:	2110      	movs	r1, #16
 156:	f7ff fffe 	bl	0 <GPIO_ReadInputDataBit>
 15a:	4c1c      	ldr	r4, [pc, #112]	; (1cc <TIM3_IRQHandler+0x1cc>)
 15c:	4605      	mov	r5, r0
 15e:	4b23      	ldr	r3, [pc, #140]	; (1ec <TIM3_IRQHandler+0x1ec>)
 160:	4a23      	ldr	r2, [pc, #140]	; (1f0 <TIM3_IRQHandler+0x1f0>)
 162:	b9c0      	cbnz	r0, 196 <TIM3_IRQHandler+0x196>
D:\sunny\stm32\therme\Project\src/main.c:2192
        {
          sdoor = 0;
          leds[0] = 2;
          if (locks_d == 1)
 164:	4e23      	ldr	r6, [pc, #140]	; (1f4 <TIM3_IRQHandler+0x1f4>)
D:\sunny\stm32\therme\Project\src/main.c:2190
		}		  
        

      if (!(GPIO_ReadInputDataBit(GPIOD, GPIO_Pin_4))) // door open event
        {
          sdoor = 0;
 166:	7018      	strb	r0, [r3, #0]
D:\sunny\stm32\therme\Project\src/main.c:2191
          leds[0] = 2;
 168:	2302      	movs	r3, #2
 16a:	7013      	strb	r3, [r2, #0]
D:\sunny\stm32\therme\Project\src/main.c:2192
          if (locks_d == 1)
 16c:	7833      	ldrb	r3, [r6, #0]
 16e:	2b01      	cmp	r3, #1
 170:	d116      	bne.n	1a0 <TIM3_IRQHandler+0x1a0>
D:\sunny\stm32\therme\Project\src/main.c:2196
            {
              sdoor = 0;

				outpp(ebuff[(modes + 36)]); // 19  buf_port
 172:	4b21      	ldr	r3, [pc, #132]	; (1f8 <TIM3_IRQHandler+0x1f8>)
 174:	781b      	ldrb	r3, [r3, #0]
 176:	18e3      	adds	r3, r4, r3
 178:	f893 0024 	ldrb.w	r0, [r3, #36]	; 0x24
 17c:	f7ff fffe 	bl	0 <TIM3_IRQHandler>
D:\sunny\stm32\therme\Project\src/main.c:2200
			 		
			  
              locks_d = 0;
              delay_fin[2] = 0;
 180:	4b1e      	ldr	r3, [pc, #120]	; (1fc <TIM3_IRQHandler+0x1fc>)
D:\sunny\stm32\therme\Project\src/main.c:2199
              sdoor = 0;

				outpp(ebuff[(modes + 36)]); // 19  buf_port
			 		
			  
              locks_d = 0;
 182:	7035      	strb	r5, [r6, #0]
D:\sunny\stm32\therme\Project\src/main.c:2200
              delay_fin[2] = 0;
 184:	681b      	ldr	r3, [r3, #0]
 186:	709d      	strb	r5, [r3, #2]
D:\sunny\stm32\therme\Project\src/main.c:2201
              delh[2] = 0;
 188:	4b1d      	ldr	r3, [pc, #116]	; (200 <TIM3_IRQHandler+0x200>)
 18a:	681b      	ldr	r3, [r3, #0]
 18c:	709d      	strb	r5, [r3, #2]
D:\sunny\stm32\therme\Project\src/main.c:2202
              delm[2] = 0;
 18e:	4b1d      	ldr	r3, [pc, #116]	; (204 <TIM3_IRQHandler+0x204>)
 190:	681b      	ldr	r3, [r3, #0]
 192:	709d      	strb	r5, [r3, #2]
 194:	e004      	b.n	1a0 <TIM3_IRQHandler+0x1a0>
D:\sunny\stm32\therme\Project\src/main.c:2207
            }
        }
      else
        {
          if (sdoor == 0)
 196:	7818      	ldrb	r0, [r3, #0]
 198:	2101      	movs	r1, #1
 19a:	b900      	cbnz	r0, 19e <TIM3_IRQHandler+0x19e>
D:\sunny\stm32\therme\Project\src/main.c:2209
            
              sdoor = 1;
 19c:	7019      	strb	r1, [r3, #0]
D:\sunny\stm32\therme\Project\src/main.c:2210
              leds[0] = 1;
 19e:	7011      	strb	r1, [r2, #0]
D:\sunny\stm32\therme\Project\src/main.c:2219

      // sprintf(uart_buf,"%d : %d  \r\n",butt[0],butt[1],butt[2]);
      // printUART2((unsigned int *)uart_buf);
      //STM_EVAL_LEDToggle(0);

      MCP_read(butt, mcp1, 0x00);
 1a0:	2140      	movs	r1, #64	; 0x40
 1a2:	2200      	movs	r2, #0
 1a4:	4818      	ldr	r0, [pc, #96]	; (208 <TIM3_IRQHandler+0x208>)
 1a6:	f7ff fffe 	bl	0 <MCP_read>
D:\sunny\stm32\therme\Project\src/main.c:2222
      //printsU(butt,8);

      if ((butt[1] & 0x20) == 0x20) // push button
 1aa:	4b17      	ldr	r3, [pc, #92]	; (208 <TIM3_IRQHandler+0x208>)
 1ac:	685b      	ldr	r3, [r3, #4]
 1ae:	f013 0220 	ands.w	r2, r3, #32
 1b2:	4b16      	ldr	r3, [pc, #88]	; (20c <TIM3_IRQHandler+0x20c>)
 1b4:	d02c      	beq.n	210 <TIM3_IRQHandler+0x210>
D:\sunny\stm32\therme\Project\src/main.c:2225
        {
			
		delay_button = 0;
 1b6:	2200      	movs	r2, #0
 1b8:	701a      	strb	r2, [r3, #0]
D:\sunny\stm32\therme\Project\src/main.c:2226
         ebuff[63] = 1;
 1ba:	2301      	movs	r3, #1
 1bc:	f884 303f 	strb.w	r3, [r4, #63]	; 0x3f
 1c0:	e02b      	b.n	21a <TIM3_IRQHandler+0x21a>
 1c2:	bf00      	nop
 1c4:	40000400 	.word	0x40000400
	...
 1e8:	40011400 	.word	0x40011400
	...
D:\sunny\stm32\therme\Project\src/main.c:2257
		
		
        }
      else
        {
			delay_button++;
 210:	7819      	ldrb	r1, [r3, #0]
D:\sunny\stm32\therme\Project\src/main.c:2259
			
			ebuff[63] = 0;
 212:	f884 203f 	strb.w	r2, [r4, #63]	; 0x3f
D:\sunny\stm32\therme\Project\src/main.c:2257
		
		
        }
      else
        {
			delay_button++;
 216:	3101      	adds	r1, #1
 218:	7019      	strb	r1, [r3, #0]
D:\sunny\stm32\therme\Project\src/main.c:2275
			
			
			
        }

      Read_RTC();
 21a:	f7ff fffe 	bl	0 <TIM3_IRQHandler>
D:\sunny\stm32\therme\Project\src/main.c:2277

      capture1 = TIM_GetCapture1(TIM3);
 21e:	482d      	ldr	r0, [pc, #180]	; (b8 <TIM_GetCapture1+0xb8>)
 220:	f7ff fffe 	bl	0 <TIM_GetCapture1>
 224:	4b2c      	ldr	r3, [pc, #176]	; (2d8 <TIM3_IRQHandler+0x2d8>)
 226:	8198      	strh	r0, [r3, #12]
D:\sunny\stm32\therme\Project\src/main.c:2278
      TIM_SetCompare1(TIM3, capture1 + CCR1_Val);
 228:	4b2c      	ldr	r3, [pc, #176]	; (2dc <TIM3_IRQHandler+0x2dc>)
 22a:	f8b3 129a 	ldrh.w	r1, [r3, #666]	; 0x29a
 22e:	1841      	adds	r1, r0, r1
 230:	b289      	uxth	r1, r1
 232:	4828      	ldr	r0, [pc, #160]	; (2d4 <TIM3_IRQHandler+0x2d4>)
 234:	f7ff fffe 	bl	0 <TIM_SetCompare1>
D:\sunny\stm32\therme\Project\src/main.c:2282

      //TIM_SetCompare1(TIM3, capture + 6000);
    }
  if (TIM_GetITStatus(TIM3, TIM_IT_CC2) != RESET)
 238:	4826      	ldr	r0, [pc, #152]	; (2d4 <TIM3_IRQHandler+0x2d4>)
 23a:	2104      	movs	r1, #4
 23c:	f7ff fffe 	bl	0 <TIM_GetITStatus>
 240:	b190      	cbz	r0, 268 <TIM3_IRQHandler+0x268>
D:\sunny\stm32\therme\Project\src/main.c:2285
    {

      TIM_ClearITPendingBit(TIM3, TIM_IT_CC2);
 242:	2104      	movs	r1, #4
 244:	4823      	ldr	r0, [pc, #140]	; (2d4 <TIM3_IRQHandler+0x2d4>)
 246:	f7ff fffe 	bl	0 <TIM_ClearITPendingBit>
D:\sunny\stm32\therme\Project\src/main.c:2286
      check_temp();
 24a:	f7ff fffe 	bl	0 <TIM3_IRQHandler>
D:\sunny\stm32\therme\Project\src/main.c:2291

      /* Pin PC.07 toggling with frequency = 109.8 Hz */

      //STM_EVAL_LEDToggle(1);
      capture1 = TIM_GetCapture2(TIM3);
 24e:	4821      	ldr	r0, [pc, #132]	; (88 <TIM_GetCapture2+0x88>)
 250:	f7ff fffe 	bl	0 <TIM_GetCapture2>
 254:	4b20      	ldr	r3, [pc, #128]	; (2d8 <TIM3_IRQHandler+0x2d8>)
 256:	8198      	strh	r0, [r3, #12]
D:\sunny\stm32\therme\Project\src/main.c:2292
      TIM_SetCompare2(TIM3, capture1 + CCR2_Val);
 258:	4b20      	ldr	r3, [pc, #128]	; (2dc <TIM3_IRQHandler+0x2dc>)
 25a:	f8b3 129c 	ldrh.w	r1, [r3, #668]	; 0x29c
 25e:	1841      	adds	r1, r0, r1
 260:	b289      	uxth	r1, r1
 262:	481c      	ldr	r0, [pc, #112]	; (2d4 <TIM3_IRQHandler+0x2d4>)
 264:	f7ff fffe 	bl	0 <TIM_SetCompare2>
D:\sunny\stm32\therme\Project\src/main.c:2295
      //TIM_SetCompare2(TIM3, capture + 3000);
    }
  if (TIM_GetITStatus(TIM3, TIM_IT_CC3) != RESET)
 268:	481a      	ldr	r0, [pc, #104]	; (2d4 <TIM3_IRQHandler+0x2d4>)
 26a:	2108      	movs	r1, #8
 26c:	f7ff fffe 	bl	0 <TIM_GetITStatus>
 270:	b180      	cbz	r0, 294 <TIM3_IRQHandler+0x294>
D:\sunny\stm32\therme\Project\src/main.c:2297
    {
      TIM_ClearITPendingBit(TIM3, TIM_IT_CC3);
 272:	2108      	movs	r1, #8
 274:	4817      	ldr	r0, [pc, #92]	; (2d4 <TIM3_IRQHandler+0x2d4>)
 276:	f7ff fffe 	bl	0 <TIM_ClearITPendingBit>
D:\sunny\stm32\therme\Project\src/main.c:2301

      /* Pin PC.08 toggling with frequency = 219.7 Hz */

      capture1 = TIM_GetCapture3(TIM3);
 27a:	4816      	ldr	r0, [pc, #88]	; (5c <TIM_GetCapture3+0x5c>)
 27c:	f7ff fffe 	bl	0 <TIM_GetCapture3>
 280:	4b15      	ldr	r3, [pc, #84]	; (2d8 <TIM3_IRQHandler+0x2d8>)
 282:	8198      	strh	r0, [r3, #12]
D:\sunny\stm32\therme\Project\src/main.c:2302
      TIM_SetCompare3(TIM3, capture1 + CCR3_Val);
 284:	4b15      	ldr	r3, [pc, #84]	; (2dc <TIM3_IRQHandler+0x2dc>)
 286:	f8b3 129e 	ldrh.w	r1, [r3, #670]	; 0x29e
 28a:	1841      	adds	r1, r0, r1
 28c:	b289      	uxth	r1, r1
 28e:	4811      	ldr	r0, [pc, #68]	; (2d4 <TIM3_IRQHandler+0x2d4>)
 290:	f7ff fffe 	bl	0 <TIM_SetCompare3>
D:\sunny\stm32\therme\Project\src/main.c:2305
      //TIM_SetCompare3(TIM3, capture + 1000);
    }
  if (TIM_GetITStatus(TIM3, TIM_IT_CC4) != RESET)
 294:	480f      	ldr	r0, [pc, #60]	; (2d4 <TIM3_IRQHandler+0x2d4>)
 296:	2110      	movs	r1, #16
 298:	f7ff fffe 	bl	0 <TIM_GetITStatus>
 29c:	b1c0      	cbz	r0, 2d0 <TIM3_IRQHandler+0x2d0>
D:\sunny\stm32\therme\Project\src/main.c:2308
    {
      //I2C_EE_BufferRead(eep_buffer,0x00,8);
      TIM_ClearITPendingBit(TIM3, TIM_IT_CC4);
 29e:	2110      	movs	r1, #16
 2a0:	480c      	ldr	r0, [pc, #48]	; (2d4 <TIM3_IRQHandler+0x2d4>)
 2a2:	f7ff fffe 	bl	0 <TIM_ClearITPendingBit>
D:\sunny\stm32\therme\Project\src/main.c:2311

      /* Pin PC.09 toggling with frequency = 439.4 Hz */
      time_cal();
 2a6:	f7ff fffe 	bl	0 <TIM3_IRQHandler>
D:\sunny\stm32\therme\Project\src/main.c:2312
      func_chk(modes);
 2aa:	4b0d      	ldr	r3, [pc, #52]	; (2e0 <TIM3_IRQHandler+0x2e0>)
 2ac:	7818      	ldrb	r0, [r3, #0]
 2ae:	f7ff fffe 	bl	0 <TIM3_IRQHandler>
D:\sunny\stm32\therme\Project\src/main.c:2314

      capture1 = TIM_GetCapture4(TIM3);
 2b2:	4808      	ldr	r0, [pc, #32]	; (24 <TIM_GetCapture4+0x24>)
 2b4:	f7ff fffe 	bl	0 <TIM_GetCapture4>
 2b8:	4b07      	ldr	r3, [pc, #28]	; (2d8 <TIM3_IRQHandler+0x2d8>)
 2ba:	8198      	strh	r0, [r3, #12]
D:\sunny\stm32\therme\Project\src/main.c:2315
      TIM_SetCompare4(TIM3, capture1 + CCR4_Val);
 2bc:	4b07      	ldr	r3, [pc, #28]	; (2dc <TIM3_IRQHandler+0x2dc>)
 2be:	f8b3 12a0 	ldrh.w	r1, [r3, #672]	; 0x2a0
 2c2:	1841      	adds	r1, r0, r1
 2c4:	4803      	ldr	r0, [pc, #12]	; (2d4 <TIM3_IRQHandler+0x2d4>)
 2c6:	b289      	uxth	r1, r1
D:\sunny\stm32\therme\Project\src/main.c:2318
      //TIM_SetCompare4(TIM3, capture + 500);
    }
}
 2c8:	e8bd 4070 	ldmia.w	sp!, {r4, r5, r6, lr}
D:\sunny\stm32\therme\Project\src/main.c:2315
      /* Pin PC.09 toggling with frequency = 439.4 Hz */
      time_cal();
      func_chk(modes);

      capture1 = TIM_GetCapture4(TIM3);
      TIM_SetCompare4(TIM3, capture1 + CCR4_Val);
 2cc:	f7ff bffe 	b.w	0 <TIM_SetCompare4>
 2d0:	bd70      	pop	{r4, r5, r6, pc}
 2d2:	bf00      	nop
 2d4:	40000400 	.word	0x40000400
	...

Disassembly of section .text.MENU_int:

00000000 <MENU_int>:
MENU_int():
D:\sunny\stm32\therme\Project\src/main.c:2322
    }
}

void
MENU_int(void)
{
   0:	2001b570 	.word	0x2001b570
   4:	b088      	sub	sp, #32
D:\sunny\stm32\therme\Project\src/main.c:2326
  NVIC_InitTypeDef NVIC_InitStructure;

  /* TIM2 clock enable */
  RCC_APB1PeriphClockCmd(RCC_APB1Periph_TIM2, ENABLE);
   6:	4601      	mov	r1, r0
   8:	f7ff fffe 	bl	0 <RCC_APB1PeriphClockCmd>
D:\sunny\stm32\therme\Project\src/main.c:2329

  /* Enable the TIM2 gloabal Interrupt */
  NVIC_InitStructure.NVIC_IRQChannel = TIM2_IRQn;
   c:	231c      	movs	r3, #28
D:\sunny\stm32\therme\Project\src/main.c:2331
  NVIC_InitStructure.NVIC_IRQChannelPreemptionPriority = 4;
  NVIC_InitStructure.NVIC_IRQChannelSubPriority = 1;
   e:	2401      	movs	r4, #1
D:\sunny\stm32\therme\Project\src/main.c:2330
  /* TIM2 clock enable */
  RCC_APB1PeriphClockCmd(RCC_APB1Periph_TIM2, ENABLE);

  /* Enable the TIM2 gloabal Interrupt */
  NVIC_InitStructure.NVIC_IRQChannel = TIM2_IRQn;
  NVIC_InitStructure.NVIC_IRQChannelPreemptionPriority = 4;
  10:	2604      	movs	r6, #4
D:\sunny\stm32\therme\Project\src/main.c:2334
  NVIC_InitStructure.NVIC_IRQChannelSubPriority = 1;
  NVIC_InitStructure.NVIC_IRQChannelCmd = ENABLE;

  NVIC_Init(&NVIC_InitStructure);
  12:	eb0d 0003 	add.w	r0, sp, r3
D:\sunny\stm32\therme\Project\src/main.c:2329

  /* TIM2 clock enable */
  RCC_APB1PeriphClockCmd(RCC_APB1Periph_TIM2, ENABLE);

  /* Enable the TIM2 gloabal Interrupt */
  NVIC_InitStructure.NVIC_IRQChannel = TIM2_IRQn;
  16:	f88d 301c 	strb.w	r3, [sp, #28]
D:\sunny\stm32\therme\Project\src/main.c:2330
  NVIC_InitStructure.NVIC_IRQChannelPreemptionPriority = 4;
  1a:	f88d 601d 	strb.w	r6, [sp, #29]
D:\sunny\stm32\therme\Project\src/main.c:2331
  NVIC_InitStructure.NVIC_IRQChannelSubPriority = 1;
  1e:	f88d 401e 	strb.w	r4, [sp, #30]
D:\sunny\stm32\therme\Project\src/main.c:2332
  NVIC_InitStructure.NVIC_IRQChannelCmd = ENABLE;
  22:	f88d 401f 	strb.w	r4, [sp, #31]
D:\sunny\stm32\therme\Project\src/main.c:2334

  NVIC_Init(&NVIC_InitStructure);
  26:	f7ff fffe 	bl	0 <NVIC_Init>
D:\sunny\stm32\therme\Project\src/main.c:2339

  TIM_TimeBaseInitTypeDef TIM_TimeBaseStructure;
  TIM_OCInitTypeDef TIM_OCInitStructure;
  /* Time base configuration */
  TIM_TimeBaseStructure.TIM_Period = 65535;
  2a:	f04f 33ff 	mov.w	r3, #4294967295
D:\sunny\stm32\therme\Project\src/main.c:2341
  TIM_TimeBaseStructure.TIM_Prescaler = 100;
  TIM_TimeBaseStructure.TIM_ClockDivision = 0;
  2e:	2500      	movs	r5, #0
D:\sunny\stm32\therme\Project\src/main.c:2339
  NVIC_Init(&NVIC_InitStructure);

  TIM_TimeBaseInitTypeDef TIM_TimeBaseStructure;
  TIM_OCInitTypeDef TIM_OCInitStructure;
  /* Time base configuration */
  TIM_TimeBaseStructure.TIM_Period = 65535;
  30:	f8ad 3014 	strh.w	r3, [sp, #20]
D:\sunny\stm32\therme\Project\src/main.c:2344
  TIM_TimeBaseStructure.TIM_Prescaler = 100;
  TIM_TimeBaseStructure.TIM_ClockDivision = 0;
  TIM_TimeBaseStructure.TIM_CounterMode = TIM_CounterMode_Up;

  TIM_TimeBaseInit(TIM2, &TIM_TimeBaseStructure);
  34:	a904      	add	r1, sp, #16
D:\sunny\stm32\therme\Project\src/main.c:2340

  TIM_TimeBaseInitTypeDef TIM_TimeBaseStructure;
  TIM_OCInitTypeDef TIM_OCInitStructure;
  /* Time base configuration */
  TIM_TimeBaseStructure.TIM_Period = 65535;
  TIM_TimeBaseStructure.TIM_Prescaler = 100;
  36:	2364      	movs	r3, #100	; 0x64
D:\sunny\stm32\therme\Project\src/main.c:2344
  TIM_TimeBaseStructure.TIM_ClockDivision = 0;
  TIM_TimeBaseStructure.TIM_CounterMode = TIM_CounterMode_Up;

  TIM_TimeBaseInit(TIM2, &TIM_TimeBaseStructure);
  38:	f04f 4080 	mov.w	r0, #1073741824	; 0x40000000
D:\sunny\stm32\therme\Project\src/main.c:2340

  TIM_TimeBaseInitTypeDef TIM_TimeBaseStructure;
  TIM_OCInitTypeDef TIM_OCInitStructure;
  /* Time base configuration */
  TIM_TimeBaseStructure.TIM_Period = 65535;
  TIM_TimeBaseStructure.TIM_Prescaler = 100;
  3c:	f8ad 3010 	strh.w	r3, [sp, #16]
D:\sunny\stm32\therme\Project\src/main.c:2341
  TIM_TimeBaseStructure.TIM_ClockDivision = 0;
  40:	f8ad 5016 	strh.w	r5, [sp, #22]
D:\sunny\stm32\therme\Project\src/main.c:2342
  TIM_TimeBaseStructure.TIM_CounterMode = TIM_CounterMode_Up;
  44:	f8ad 5012 	strh.w	r5, [sp, #18]
D:\sunny\stm32\therme\Project\src/main.c:2344

  TIM_TimeBaseInit(TIM2, &TIM_TimeBaseStructure);
  48:	f7ff fffe 	bl	0 <TIM_TimeBaseInit>
D:\sunny\stm32\therme\Project\src/main.c:2347

  /* Prescaler configuration */
  TIM_PrescalerConfig(TIM2, 4, TIM_PSCReloadMode_Immediate);
  4c:	4631      	mov	r1, r6
D:\sunny\stm32\therme\Project\src/main.c:2352

  /* Output Compare Timing Mode configuration: Channel1 */
  TIM_OCInitStructure.TIM_OCMode = TIM_OCMode_Timing;
  TIM_OCInitStructure.TIM_OutputState = TIM_OutputState_Enable;
  TIM_OCInitStructure.TIM_Pulse = CCR1_Val;
  4e:	4e2b      	ldr	r6, [pc, #172]	; (fc <MENU_int+0xfc>)
D:\sunny\stm32\therme\Project\src/main.c:2347
  TIM_TimeBaseStructure.TIM_CounterMode = TIM_CounterMode_Up;

  TIM_TimeBaseInit(TIM2, &TIM_TimeBaseStructure);

  /* Prescaler configuration */
  TIM_PrescalerConfig(TIM2, 4, TIM_PSCReloadMode_Immediate);
  50:	4622      	mov	r2, r4
  52:	f04f 4080 	mov.w	r0, #1073741824	; 0x40000000
  56:	f7ff fffe 	bl	0 <TIM_PrescalerConfig>
D:\sunny\stm32\therme\Project\src/main.c:2352

  /* Output Compare Timing Mode configuration: Channel1 */
  TIM_OCInitStructure.TIM_OCMode = TIM_OCMode_Timing;
  TIM_OCInitStructure.TIM_OutputState = TIM_OutputState_Enable;
  TIM_OCInitStructure.TIM_Pulse = CCR1_Val;
  5a:	f8b6 329a 	ldrh.w	r3, [r6, #666]	; 0x29a
D:\sunny\stm32\therme\Project\src/main.c:2355
  TIM_OCInitStructure.TIM_OCPolarity = TIM_OCPolarity_High;

  TIM_OC1Init(TIM2, &TIM_OCInitStructure);
  5e:	4669      	mov	r1, sp
  60:	f04f 4080 	mov.w	r0, #1073741824	; 0x40000000
D:\sunny\stm32\therme\Project\src/main.c:2352
  TIM_PrescalerConfig(TIM2, 4, TIM_PSCReloadMode_Immediate);

  /* Output Compare Timing Mode configuration: Channel1 */
  TIM_OCInitStructure.TIM_OCMode = TIM_OCMode_Timing;
  TIM_OCInitStructure.TIM_OutputState = TIM_OutputState_Enable;
  TIM_OCInitStructure.TIM_Pulse = CCR1_Val;
  64:	f8ad 3006 	strh.w	r3, [sp, #6]
D:\sunny\stm32\therme\Project\src/main.c:2350

  /* Prescaler configuration */
  TIM_PrescalerConfig(TIM2, 4, TIM_PSCReloadMode_Immediate);

  /* Output Compare Timing Mode configuration: Channel1 */
  TIM_OCInitStructure.TIM_OCMode = TIM_OCMode_Timing;
  68:	f8ad 5000 	strh.w	r5, [sp]
D:\sunny\stm32\therme\Project\src/main.c:2351
  TIM_OCInitStructure.TIM_OutputState = TIM_OutputState_Enable;
  6c:	f8ad 4002 	strh.w	r4, [sp, #2]
D:\sunny\stm32\therme\Project\src/main.c:2353
  TIM_OCInitStructure.TIM_Pulse = CCR1_Val;
  TIM_OCInitStructure.TIM_OCPolarity = TIM_OCPolarity_High;
  70:	f8ad 5008 	strh.w	r5, [sp, #8]
D:\sunny\stm32\therme\Project\src/main.c:2355

  TIM_OC1Init(TIM2, &TIM_OCInitStructure);
  74:	f7ff fffe 	bl	0 <TIM_OC1Init>
D:\sunny\stm32\therme\Project\src/main.c:2357

  TIM_OC1PreloadConfig(TIM2, TIM_OCPreload_Disable);
  78:	4629      	mov	r1, r5
  7a:	f04f 4080 	mov.w	r0, #1073741824	; 0x40000000
  7e:	f7ff fffe 	bl	0 <TIM_OC1PreloadConfig>
D:\sunny\stm32\therme\Project\src/main.c:2361

  /* Output Compare Timing Mode configuration: Channel2 */
  TIM_OCInitStructure.TIM_OutputState = TIM_OutputState_Enable;
  TIM_OCInitStructure.TIM_Pulse = CCR2_Val;
  82:	f8b6 329c 	ldrh.w	r3, [r6, #668]	; 0x29c
D:\sunny\stm32\therme\Project\src/main.c:2363

  TIM_OC2Init(TIM2, &TIM_OCInitStructure);
  86:	4669      	mov	r1, sp
  88:	f04f 4080 	mov.w	r0, #1073741824	; 0x40000000
D:\sunny\stm32\therme\Project\src/main.c:2361

  TIM_OC1PreloadConfig(TIM2, TIM_OCPreload_Disable);

  /* Output Compare Timing Mode configuration: Channel2 */
  TIM_OCInitStructure.TIM_OutputState = TIM_OutputState_Enable;
  TIM_OCInitStructure.TIM_Pulse = CCR2_Val;
  8c:	f8ad 3006 	strh.w	r3, [sp, #6]
D:\sunny\stm32\therme\Project\src/main.c:2360
  TIM_OC1Init(TIM2, &TIM_OCInitStructure);

  TIM_OC1PreloadConfig(TIM2, TIM_OCPreload_Disable);

  /* Output Compare Timing Mode configuration: Channel2 */
  TIM_OCInitStructure.TIM_OutputState = TIM_OutputState_Enable;
  90:	f8ad 4002 	strh.w	r4, [sp, #2]
D:\sunny\stm32\therme\Project\src/main.c:2363
  TIM_OCInitStructure.TIM_Pulse = CCR2_Val;

  TIM_OC2Init(TIM2, &TIM_OCInitStructure);
  94:	f7ff fffe 	bl	0 <TIM_OC2Init>
D:\sunny\stm32\therme\Project\src/main.c:2365

  TIM_OC2PreloadConfig(TIM2, TIM_OCPreload_Disable);
  98:	4629      	mov	r1, r5
  9a:	f04f 4080 	mov.w	r0, #1073741824	; 0x40000000
  9e:	f7ff fffe 	bl	0 <TIM_OC2PreloadConfig>
D:\sunny\stm32\therme\Project\src/main.c:2369

  /* Output Compare Timing Mode configuration: Channel3 */
  TIM_OCInitStructure.TIM_OutputState = TIM_OutputState_Enable;
  TIM_OCInitStructure.TIM_Pulse = CCR3_Val;
  a2:	f8b6 329e 	ldrh.w	r3, [r6, #670]	; 0x29e
D:\sunny\stm32\therme\Project\src/main.c:2371

  TIM_OC3Init(TIM2, &TIM_OCInitStructure);
  a6:	4669      	mov	r1, sp
  a8:	f04f 4080 	mov.w	r0, #1073741824	; 0x40000000
D:\sunny\stm32\therme\Project\src/main.c:2369

  TIM_OC2PreloadConfig(TIM2, TIM_OCPreload_Disable);

  /* Output Compare Timing Mode configuration: Channel3 */
  TIM_OCInitStructure.TIM_OutputState = TIM_OutputState_Enable;
  TIM_OCInitStructure.TIM_Pulse = CCR3_Val;
  ac:	f8ad 3006 	strh.w	r3, [sp, #6]
D:\sunny\stm32\therme\Project\src/main.c:2368
  TIM_OC2Init(TIM2, &TIM_OCInitStructure);

  TIM_OC2PreloadConfig(TIM2, TIM_OCPreload_Disable);

  /* Output Compare Timing Mode configuration: Channel3 */
  TIM_OCInitStructure.TIM_OutputState = TIM_OutputState_Enable;
  b0:	f8ad 4002 	strh.w	r4, [sp, #2]
D:\sunny\stm32\therme\Project\src/main.c:2371
  TIM_OCInitStructure.TIM_Pulse = CCR3_Val;

  TIM_OC3Init(TIM2, &TIM_OCInitStructure);
  b4:	f7ff fffe 	bl	0 <TIM_OC3Init>
D:\sunny\stm32\therme\Project\src/main.c:2373

  TIM_OC3PreloadConfig(TIM2, TIM_OCPreload_Disable);
  b8:	4629      	mov	r1, r5
  ba:	f04f 4080 	mov.w	r0, #1073741824	; 0x40000000
  be:	f7ff fffe 	bl	0 <TIM_OC3PreloadConfig>
D:\sunny\stm32\therme\Project\src/main.c:2377

  /* Output Compare Timing Mode configuration: Channel4 */
  TIM_OCInitStructure.TIM_OutputState = TIM_OutputState_Enable;
  TIM_OCInitStructure.TIM_Pulse = CCR4_Val;
  c2:	f8b6 62a0 	ldrh.w	r6, [r6, #672]	; 0x2a0
D:\sunny\stm32\therme\Project\src/main.c:2379

  TIM_OC4Init(TIM2, &TIM_OCInitStructure);
  c6:	4669      	mov	r1, sp
  c8:	f04f 4080 	mov.w	r0, #1073741824	; 0x40000000
D:\sunny\stm32\therme\Project\src/main.c:2376
  TIM_OC3Init(TIM2, &TIM_OCInitStructure);

  TIM_OC3PreloadConfig(TIM2, TIM_OCPreload_Disable);

  /* Output Compare Timing Mode configuration: Channel4 */
  TIM_OCInitStructure.TIM_OutputState = TIM_OutputState_Enable;
  cc:	f8ad 4002 	strh.w	r4, [sp, #2]
D:\sunny\stm32\therme\Project\src/main.c:2377
  TIM_OCInitStructure.TIM_Pulse = CCR4_Val;
  d0:	f8ad 6006 	strh.w	r6, [sp, #6]
D:\sunny\stm32\therme\Project\src/main.c:2379

  TIM_OC4Init(TIM2, &TIM_OCInitStructure);
  d4:	f7ff fffe 	bl	0 <TIM_OC4Init>
D:\sunny\stm32\therme\Project\src/main.c:2381

  TIM_OC4PreloadConfig(TIM2, TIM_OCPreload_Disable);
  d8:	4629      	mov	r1, r5
  da:	f04f 4080 	mov.w	r0, #1073741824	; 0x40000000
  de:	f7ff fffe 	bl	0 <TIM_OC4PreloadConfig>
D:\sunny\stm32\therme\Project\src/main.c:2384

  /* TIM IT enable */
  TIM_ITConfig(TIM2, TIM_IT_CC1 | TIM_IT_CC2 | TIM_IT_CC3 | TIM_IT_CC4, ENABLE);
  e2:	211e      	movs	r1, #30
  e4:	f04f 4080 	mov.w	r0, #1073741824	; 0x40000000
  e8:	4622      	mov	r2, r4
  ea:	f7ff fffe 	bl	0 <TIM_ITConfig>
D:\sunny\stm32\therme\Project\src/main.c:2387

  /* TIM2 enable counter */
  TIM_Cmd(TIM2, ENABLE);
  ee:	f04f 4080 	mov.w	r0, #1073741824	; 0x40000000
  f2:	4621      	mov	r1, r4
  f4:	f7ff fffe 	bl	0 <TIM_Cmd>
D:\sunny\stm32\therme\Project\src/main.c:2389

}
  f8:	b008      	add	sp, #32
  fa:	bd70      	pop	{r4, r5, r6, pc}
  fc:	00000000 	.word	0x00000000

Disassembly of section .text.MENU_int1:

00000000 <MENU_int1>:
MENU_int1():
D:\sunny\stm32\therme\Project\src/main.c:2393

void
MENU_int1(void)
{
   0:	e92d 41f0 	stmdb	sp!, {r4, r5, r6, r7, r8, lr}
D:\sunny\stm32\therme\Project\src/main.c:2397
  NVIC_InitTypeDef NVIC_InitStructure;

  /* TIM3 clock enable */
  RCC_APB1PeriphClockCmd(RCC_APB1Periph_TIM3, ENABLE);
   4:	2101      	movs	r1, #1
D:\sunny\stm32\therme\Project\src/main.c:2393

}

void
MENU_int1(void)
{
   6:	b088      	sub	sp, #32
D:\sunny\stm32\therme\Project\src/main.c:2397
  NVIC_InitTypeDef NVIC_InitStructure;

  /* TIM3 clock enable */
  RCC_APB1PeriphClockCmd(RCC_APB1Periph_TIM3, ENABLE);
   8:	2002      	movs	r0, #2
   a:	f7ff fffe 	bl	0 <RCC_APB1PeriphClockCmd>
D:\sunny\stm32\therme\Project\src/main.c:2400

  /* Enable the TIM3 gloabal Interrupt */
  NVIC_InitStructure.NVIC_IRQChannel = TIM3_IRQn;
   e:	231d      	movs	r3, #29
  10:	f88d 301c 	strb.w	r3, [sp, #28]
D:\sunny\stm32\therme\Project\src/main.c:2401
  NVIC_InitStructure.NVIC_IRQChannelPreemptionPriority = 4;
  14:	3b19      	subs	r3, #25
D:\sunny\stm32\therme\Project\src/main.c:2403
  NVIC_InitStructure.NVIC_IRQChannelSubPriority = 3;
  NVIC_InitStructure.NVIC_IRQChannelCmd = ENABLE;
  16:	2401      	movs	r4, #1
D:\sunny\stm32\therme\Project\src/main.c:2401
  /* TIM3 clock enable */
  RCC_APB1PeriphClockCmd(RCC_APB1Periph_TIM3, ENABLE);

  /* Enable the TIM3 gloabal Interrupt */
  NVIC_InitStructure.NVIC_IRQChannel = TIM3_IRQn;
  NVIC_InitStructure.NVIC_IRQChannelPreemptionPriority = 4;
  18:	f88d 301d 	strb.w	r3, [sp, #29]
D:\sunny\stm32\therme\Project\src/main.c:2405
  NVIC_InitStructure.NVIC_IRQChannelSubPriority = 3;
  NVIC_InitStructure.NVIC_IRQChannelCmd = ENABLE;

  NVIC_Init(&NVIC_InitStructure);
  1c:	a807      	add	r0, sp, #28
D:\sunny\stm32\therme\Project\src/main.c:2402
  RCC_APB1PeriphClockCmd(RCC_APB1Periph_TIM3, ENABLE);

  /* Enable the TIM3 gloabal Interrupt */
  NVIC_InitStructure.NVIC_IRQChannel = TIM3_IRQn;
  NVIC_InitStructure.NVIC_IRQChannelPreemptionPriority = 4;
  NVIC_InitStructure.NVIC_IRQChannelSubPriority = 3;
  1e:	3b01      	subs	r3, #1
D:\sunny\stm32\therme\Project\src/main.c:2421
  /* Prescaler configuration */

  /* Output Compare Timing Mode configuration: Channel1 */
  TIM_OCInitStructure.TIM_OCMode = TIM_OCMode_Timing;
  TIM_OCInitStructure.TIM_OutputState = TIM_OutputState_Enable;
  TIM_OCInitStructure.TIM_Pulse = CCR1_Val;
  20:	f8df 80e4 	ldr.w	r8, [pc, #228]	; 108 <MENU_int1+0x108>
D:\sunny\stm32\therme\Project\src/main.c:2402
  RCC_APB1PeriphClockCmd(RCC_APB1Periph_TIM3, ENABLE);

  /* Enable the TIM3 gloabal Interrupt */
  NVIC_InitStructure.NVIC_IRQChannel = TIM3_IRQn;
  NVIC_InitStructure.NVIC_IRQChannelPreemptionPriority = 4;
  NVIC_InitStructure.NVIC_IRQChannelSubPriority = 3;
  24:	f88d 301e 	strb.w	r3, [sp, #30]
D:\sunny\stm32\therme\Project\src/main.c:2403
  NVIC_InitStructure.NVIC_IRQChannelCmd = ENABLE;
  28:	f88d 401f 	strb.w	r4, [sp, #31]
D:\sunny\stm32\therme\Project\src/main.c:2405

  NVIC_Init(&NVIC_InitStructure);
  2c:	f7ff fffe 	bl	0 <NVIC_Init>
D:\sunny\stm32\therme\Project\src/main.c:2410

  TIM_TimeBaseInitTypeDef TIM_TimeBaseStructure;
  TIM_OCInitTypeDef TIM_OCInitStructure;
  /* Time base configuration */
  TIM_TimeBaseStructure.TIM_Period = 65535;
  30:	f04f 33ff 	mov.w	r3, #4294967295
D:\sunny\stm32\therme\Project\src/main.c:2412
  TIM_TimeBaseStructure.TIM_Prescaler = 59999;
  TIM_TimeBaseStructure.TIM_ClockDivision = 0;
  34:	2700      	movs	r7, #0
D:\sunny\stm32\therme\Project\src/main.c:2410
  NVIC_Init(&NVIC_InitStructure);

  TIM_TimeBaseInitTypeDef TIM_TimeBaseStructure;
  TIM_OCInitTypeDef TIM_OCInitStructure;
  /* Time base configuration */
  TIM_TimeBaseStructure.TIM_Period = 65535;
  36:	f8ad 3014 	strh.w	r3, [sp, #20]
D:\sunny\stm32\therme\Project\src/main.c:2415
  TIM_TimeBaseStructure.TIM_Prescaler = 59999;
  TIM_TimeBaseStructure.TIM_ClockDivision = 0;
  TIM_TimeBaseStructure.TIM_CounterMode = TIM_CounterMode_Up;

  TIM_TimeBaseInit(TIM3, &TIM_TimeBaseStructure);
  3a:	a904      	add	r1, sp, #16
D:\sunny\stm32\therme\Project\src/main.c:2411

  TIM_TimeBaseInitTypeDef TIM_TimeBaseStructure;
  TIM_OCInitTypeDef TIM_OCInitStructure;
  /* Time base configuration */
  TIM_TimeBaseStructure.TIM_Period = 65535;
  TIM_TimeBaseStructure.TIM_Prescaler = 59999;
  3c:	f64e 235f 	movw	r3, #59999	; 0xea5f
D:\sunny\stm32\therme\Project\src/main.c:2415
  TIM_TimeBaseStructure.TIM_ClockDivision = 0;
  TIM_TimeBaseStructure.TIM_CounterMode = TIM_CounterMode_Up;

  TIM_TimeBaseInit(TIM3, &TIM_TimeBaseStructure);
  40:	4830      	ldr	r0, [pc, #192]	; (104 <MENU_int1+0x104>)
D:\sunny\stm32\therme\Project\src/main.c:2411

  TIM_TimeBaseInitTypeDef TIM_TimeBaseStructure;
  TIM_OCInitTypeDef TIM_OCInitStructure;
  /* Time base configuration */
  TIM_TimeBaseStructure.TIM_Period = 65535;
  TIM_TimeBaseStructure.TIM_Prescaler = 59999;
  42:	f8ad 3010 	strh.w	r3, [sp, #16]
D:\sunny\stm32\therme\Project\src/main.c:2412
  TIM_TimeBaseStructure.TIM_ClockDivision = 0;
  46:	f8ad 7016 	strh.w	r7, [sp, #22]
D:\sunny\stm32\therme\Project\src/main.c:2413
  TIM_TimeBaseStructure.TIM_CounterMode = TIM_CounterMode_Up;
  4a:	f8ad 7012 	strh.w	r7, [sp, #18]
D:\sunny\stm32\therme\Project\src/main.c:2415

  TIM_TimeBaseInit(TIM3, &TIM_TimeBaseStructure);
  4e:	f7ff fffe 	bl	0 <TIM_TimeBaseInit>
D:\sunny\stm32\therme\Project\src/main.c:2421
  /* Prescaler configuration */

  /* Output Compare Timing Mode configuration: Channel1 */
  TIM_OCInitStructure.TIM_OCMode = TIM_OCMode_Timing;
  TIM_OCInitStructure.TIM_OutputState = TIM_OutputState_Enable;
  TIM_OCInitStructure.TIM_Pulse = CCR1_Val;
  52:	f8b8 329a 	ldrh.w	r3, [r8, #666]	; 0x29a
D:\sunny\stm32\therme\Project\src/main.c:2424
  TIM_OCInitStructure.TIM_OCPolarity = TIM_OCPolarity_High;

  TIM_OC1Init(TIM3, &TIM_OCInitStructure);
  56:	4669      	mov	r1, sp
  58:	482a      	ldr	r0, [pc, #168]	; (104 <MENU_int1+0x104>)
D:\sunny\stm32\therme\Project\src/main.c:2421
  /* Prescaler configuration */

  /* Output Compare Timing Mode configuration: Channel1 */
  TIM_OCInitStructure.TIM_OCMode = TIM_OCMode_Timing;
  TIM_OCInitStructure.TIM_OutputState = TIM_OutputState_Enable;
  TIM_OCInitStructure.TIM_Pulse = CCR1_Val;
  5a:	f8ad 3006 	strh.w	r3, [sp, #6]
D:\sunny\stm32\therme\Project\src/main.c:2419

  TIM_TimeBaseInit(TIM3, &TIM_TimeBaseStructure);
  /* Prescaler configuration */

  /* Output Compare Timing Mode configuration: Channel1 */
  TIM_OCInitStructure.TIM_OCMode = TIM_OCMode_Timing;
  5e:	f8ad 7000 	strh.w	r7, [sp]
D:\sunny\stm32\therme\Project\src/main.c:2420
  TIM_OCInitStructure.TIM_OutputState = TIM_OutputState_Enable;
  62:	f8ad 4002 	strh.w	r4, [sp, #2]
D:\sunny\stm32\therme\Project\src/main.c:2422
  TIM_OCInitStructure.TIM_Pulse = CCR1_Val;
  TIM_OCInitStructure.TIM_OCPolarity = TIM_OCPolarity_High;
  66:	f8ad 7008 	strh.w	r7, [sp, #8]
D:\sunny\stm32\therme\Project\src/main.c:2424

  TIM_OC1Init(TIM3, &TIM_OCInitStructure);
  6a:	f7ff fffe 	bl	0 <TIM_OC1Init>
D:\sunny\stm32\therme\Project\src/main.c:2426

  TIM_OC1PreloadConfig(TIM3, TIM_OCPreload_Disable);
  6e:	4639      	mov	r1, r7
  70:	4824      	ldr	r0, [pc, #144]	; (104 <MENU_int1+0x104>)
  72:	f7ff fffe 	bl	0 <TIM_OC1PreloadConfig>
D:\sunny\stm32\therme\Project\src/main.c:2430

  /* Output Compare Timing Mode configuration: Channel2 */
  TIM_OCInitStructure.TIM_OutputState = TIM_OutputState_Enable;
  TIM_OCInitStructure.TIM_Pulse = CCR2_Val;
  76:	f8b8 329c 	ldrh.w	r3, [r8, #668]	; 0x29c
D:\sunny\stm32\therme\Project\src/main.c:2432

  TIM_OC2Init(TIM3, &TIM_OCInitStructure);
  7a:	4669      	mov	r1, sp
  7c:	4821      	ldr	r0, [pc, #132]	; (104 <MENU_int1+0x104>)
D:\sunny\stm32\therme\Project\src/main.c:2430

  TIM_OC1PreloadConfig(TIM3, TIM_OCPreload_Disable);

  /* Output Compare Timing Mode configuration: Channel2 */
  TIM_OCInitStructure.TIM_OutputState = TIM_OutputState_Enable;
  TIM_OCInitStructure.TIM_Pulse = CCR2_Val;
  7e:	f8ad 3006 	strh.w	r3, [sp, #6]
D:\sunny\stm32\therme\Project\src/main.c:2429
  TIM_OC1Init(TIM3, &TIM_OCInitStructure);

  TIM_OC1PreloadConfig(TIM3, TIM_OCPreload_Disable);

  /* Output Compare Timing Mode configuration: Channel2 */
  TIM_OCInitStructure.TIM_OutputState = TIM_OutputState_Enable;
  82:	f8ad 4002 	strh.w	r4, [sp, #2]
D:\sunny\stm32\therme\Project\src/main.c:2432
  TIM_OCInitStructure.TIM_Pulse = CCR2_Val;

  TIM_OC2Init(TIM3, &TIM_OCInitStructure);
  86:	f7ff fffe 	bl	0 <TIM_OC2Init>
D:\sunny\stm32\therme\Project\src/main.c:2434

  TIM_OC2PreloadConfig(TIM3, TIM_OCPreload_Disable);
  8a:	4639      	mov	r1, r7
  8c:	481d      	ldr	r0, [pc, #116]	; (104 <MENU_int1+0x104>)
  8e:	f7ff fffe 	bl	0 <TIM_OC2PreloadConfig>
D:\sunny\stm32\therme\Project\src/main.c:2438

  /* Output Compare Timing Mode configuration: Channel3 */
  TIM_OCInitStructure.TIM_OutputState = TIM_OutputState_Enable;
  TIM_OCInitStructure.TIM_Pulse = CCR3_Val;
  92:	f8b8 329e 	ldrh.w	r3, [r8, #670]	; 0x29e
D:\sunny\stm32\therme\Project\src/main.c:2440

  TIM_OC3Init(TIM3, &TIM_OCInitStructure);
  96:	4669      	mov	r1, sp
  98:	481a      	ldr	r0, [pc, #104]	; (104 <MENU_int1+0x104>)
D:\sunny\stm32\therme\Project\src/main.c:2438

  TIM_OC2PreloadConfig(TIM3, TIM_OCPreload_Disable);

  /* Output Compare Timing Mode configuration: Channel3 */
  TIM_OCInitStructure.TIM_OutputState = TIM_OutputState_Enable;
  TIM_OCInitStructure.TIM_Pulse = CCR3_Val;
  9a:	f8ad 3006 	strh.w	r3, [sp, #6]
D:\sunny\stm32\therme\Project\src/main.c:2437
  TIM_OC2Init(TIM3, &TIM_OCInitStructure);

  TIM_OC2PreloadConfig(TIM3, TIM_OCPreload_Disable);

  /* Output Compare Timing Mode configuration: Channel3 */
  TIM_OCInitStructure.TIM_OutputState = TIM_OutputState_Enable;
  9e:	f8ad 4002 	strh.w	r4, [sp, #2]
D:\sunny\stm32\therme\Project\src/main.c:2440
  TIM_OCInitStructure.TIM_Pulse = CCR3_Val;

  TIM_OC3Init(TIM3, &TIM_OCInitStructure);
  a2:	f7ff fffe 	bl	0 <TIM_OC3Init>
D:\sunny\stm32\therme\Project\src/main.c:2442

  TIM_OC3PreloadConfig(TIM3, TIM_OCPreload_Disable);
  a6:	4639      	mov	r1, r7
  a8:	4816      	ldr	r0, [pc, #88]	; (104 <MENU_int1+0x104>)
  aa:	f7ff fffe 	bl	0 <TIM_OC3PreloadConfig>
D:\sunny\stm32\therme\Project\src/main.c:2446

  /* Output Compare Timing Mode configuration: Channel4 */
  TIM_OCInitStructure.TIM_OutputState = TIM_OutputState_Enable;
  TIM_OCInitStructure.TIM_Pulse = CCR4_Val;
  ae:	f8b8 82a0 	ldrh.w	r8, [r8, #672]	; 0x2a0
D:\sunny\stm32\therme\Project\src/main.c:2448

  TIM_OC4Init(TIM3, &TIM_OCInitStructure);
  b2:	4669      	mov	r1, sp
  b4:	4813      	ldr	r0, [pc, #76]	; (104 <MENU_int1+0x104>)
D:\sunny\stm32\therme\Project\src/main.c:2445
  TIM_OC3Init(TIM3, &TIM_OCInitStructure);

  TIM_OC3PreloadConfig(TIM3, TIM_OCPreload_Disable);

  /* Output Compare Timing Mode configuration: Channel4 */
  TIM_OCInitStructure.TIM_OutputState = TIM_OutputState_Enable;
  b6:	f8ad 4002 	strh.w	r4, [sp, #2]
D:\sunny\stm32\therme\Project\src/main.c:2446
  TIM_OCInitStructure.TIM_Pulse = CCR4_Val;
  ba:	f8ad 8006 	strh.w	r8, [sp, #6]
D:\sunny\stm32\therme\Project\src/main.c:2448

  TIM_OC4Init(TIM3, &TIM_OCInitStructure);
  be:	f7ff fffe 	bl	0 <TIM_OC4Init>
D:\sunny\stm32\therme\Project\src/main.c:2450

  TIM_OC4PreloadConfig(TIM3, TIM_OCPreload_Disable);
  c2:	4639      	mov	r1, r7
  c4:	480f      	ldr	r0, [pc, #60]	; (104 <MENU_int1+0x104>)
  c6:	f7ff fffe 	bl	0 <TIM_OC4PreloadConfig>
D:\sunny\stm32\therme\Project\src/main.c:2453

  /* TIM IT enable */
  TIM_ITConfig(TIM3, TIM_IT_CC1 | TIM_IT_CC2 | TIM_IT_CC3 | TIM_IT_CC4, ENABLE);
  ca:	4622      	mov	r2, r4
  cc:	211e      	movs	r1, #30
  ce:	480d      	ldr	r0, [pc, #52]	; (104 <MENU_int1+0x104>)
  d0:	f7ff fffe 	bl	0 <TIM_ITConfig>
D:\sunny\stm32\therme\Project\src/main.c:2456

  /* TIM3 enable counter */
  TIM_Cmd(TIM3, ENABLE);
  d4:	4621      	mov	r1, r4
  d6:	480b      	ldr	r0, [pc, #44]	; (104 <MENU_int1+0x104>)
  d8:	f7ff fffe 	bl	0 <TIM_Cmd>
D:\sunny\stm32\therme\Project\src/main.c:2460
  
  
  /* 2 bits for Preemption Priority and 2 bits for Sub Priority */
  NVIC_PriorityGroupConfig(NVIC_PriorityGroup_2);
  dc:	f44f 60a0 	mov.w	r0, #1280	; 0x500
  e0:	f7ff fffe 	bl	0 <NVIC_PriorityGroupConfig>
D:\sunny\stm32\therme\Project\src/main.c:2467
  NVIC_InitStructure.NVIC_IRQChannel = WWDG_IRQn;
  NVIC_InitStructure.NVIC_IRQChannelPreemptionPriority = 1;
  NVIC_InitStructure.NVIC_IRQChannelSubPriority = 0;
  NVIC_InitStructure.NVIC_IRQChannelCmd = ENABLE;

  NVIC_Init(&NVIC_InitStructure);
  e4:	a807      	add	r0, sp, #28
D:\sunny\stm32\therme\Project\src/main.c:2412
  TIM_TimeBaseInitTypeDef TIM_TimeBaseStructure;
  TIM_OCInitTypeDef TIM_OCInitStructure;
  /* Time base configuration */
  TIM_TimeBaseStructure.TIM_Period = 65535;
  TIM_TimeBaseStructure.TIM_Prescaler = 59999;
  TIM_TimeBaseStructure.TIM_ClockDivision = 0;
  e6:	463e      	mov	r6, r7
D:\sunny\stm32\therme\Project\src/main.c:2420
  TIM_TimeBaseInit(TIM3, &TIM_TimeBaseStructure);
  /* Prescaler configuration */

  /* Output Compare Timing Mode configuration: Channel1 */
  TIM_OCInitStructure.TIM_OCMode = TIM_OCMode_Timing;
  TIM_OCInitStructure.TIM_OutputState = TIM_OutputState_Enable;
  e8:	4625      	mov	r5, r4
D:\sunny\stm32\therme\Project\src/main.c:2462
  
  
  /* 2 bits for Preemption Priority and 2 bits for Sub Priority */
  NVIC_PriorityGroupConfig(NVIC_PriorityGroup_2);

  NVIC_InitStructure.NVIC_IRQChannel = WWDG_IRQn;
  ea:	f88d 701c 	strb.w	r7, [sp, #28]
D:\sunny\stm32\therme\Project\src/main.c:2463
  NVIC_InitStructure.NVIC_IRQChannelPreemptionPriority = 1;
  ee:	f88d 401d 	strb.w	r4, [sp, #29]
D:\sunny\stm32\therme\Project\src/main.c:2464
  NVIC_InitStructure.NVIC_IRQChannelSubPriority = 0;
  f2:	f88d 701e 	strb.w	r7, [sp, #30]
D:\sunny\stm32\therme\Project\src/main.c:2465
  NVIC_InitStructure.NVIC_IRQChannelCmd = ENABLE;
  f6:	f88d 401f 	strb.w	r4, [sp, #31]
D:\sunny\stm32\therme\Project\src/main.c:2467

  NVIC_Init(&NVIC_InitStructure);
  fa:	f7ff fffe 	bl	0 <NVIC_Init>
D:\sunny\stm32\therme\Project\src/main.c:2471
  


}
  fe:	b008      	add	sp, #32
 100:	e8bd 81f0 	ldmia.w	sp!, {r4, r5, r6, r7, r8, pc}
 104:	40000400 	.word	0x40000400
 108:	00000000 	.word	0x00000000

Disassembly of section .text.main:

00000000 <main>:
main():
D:\sunny\stm32\therme\Project\src/main.c:313
 * @retval None
 */

int
main(void)
{
   0:	e92d 41f0 	stmdb	sp!, {r4, r5, r6, r7, r8, lr}
D:\sunny\stm32\therme\Project\src/main.c:327
  timer = 00;
    /* Check if the system has resumed from WWDG reset */

  //TCS
  /* Setup STM32 system (clocks, Ethernet, GPIO, NVIC) and STM3210C-EVAL resources */
  System_Setup();
   4:	f7ff fffe 	bl	0 <System_Setup>
D:\sunny\stm32\therme\Project\src/main.c:331
  

  
  out_off(d7);
   8:	2007      	movs	r0, #7
   a:	f7ff fffe 	bl	0 <out_off>
D:\sunny\stm32\therme\Project\src/main.c:332
  td1 = 0;
   e:	4b46      	ldr	r3, [pc, #280]	; (128 <main+0x128>)
  10:	2400      	movs	r4, #0
  12:	601c      	str	r4, [r3, #0]
D:\sunny\stm32\therme\Project\src/main.c:333
  td2 = 0;
  14:	4b45      	ldr	r3, [pc, #276]	; (12c <main+0x12c>)
D:\sunny\stm32\therme\Project\src/main.c:336
  td3 = 0;
  def = 0;
  start = 1;
  16:	2601      	movs	r6, #1
D:\sunny\stm32\therme\Project\src/main.c:333
  

  
  out_off(d7);
  td1 = 0;
  td2 = 0;
  18:	601c      	str	r4, [r3, #0]
D:\sunny\stm32\therme\Project\src/main.c:334
  td3 = 0;
  1a:	4b45      	ldr	r3, [pc, #276]	; (130 <main+0x130>)
D:\sunny\stm32\therme\Project\src/main.c:352
  //IP4_ADDR(&ipaddr, 200,200,2,95); // 10.1.1.8 //  200,200,2, 95 //
  //IP4_ADDR(&netmask, 255, 255, 255, 0);
  //IP4_ADDR(&gw, 10, 1, 1, 1); //10, 1,1, 1
  //  
  
	IP4_ADDR(&ip_ipaddr, 200,200,2,95); // 10.1.1.8 //  200,200,2, 95 //
  1c:	4a45      	ldr	r2, [pc, #276]	; (134 <main+0x134>)
D:\sunny\stm32\therme\Project\src/main.c:334

  
  out_off(d7);
  td1 = 0;
  td2 = 0;
  td3 = 0;
  1e:	601c      	str	r4, [r3, #0]
D:\sunny\stm32\therme\Project\src/main.c:335
  def = 0;
  20:	4b45      	ldr	r3, [pc, #276]	; (138 <main+0x138>)
D:\sunny\stm32\therme\Project\src/main.c:336
  start = 1;
  22:	4f46      	ldr	r7, [pc, #280]	; (13c <main+0x13c>)
D:\sunny\stm32\therme\Project\src/main.c:335
  
  out_off(d7);
  td1 = 0;
  td2 = 0;
  td3 = 0;
  def = 0;
  24:	701c      	strb	r4, [r3, #0]
D:\sunny\stm32\therme\Project\src/main.c:337
  start = 1;
  locks = 1;
  26:	4b46      	ldr	r3, [pc, #280]	; (140 <main+0x140>)
D:\sunny\stm32\therme\Project\src/main.c:341
  eemodes = 0;
  modes = 0;
  locks_d = 0;
  err_c[0] = 0;
  28:	4d46      	ldr	r5, [pc, #280]	; (144 <main+0x144>)
D:\sunny\stm32\therme\Project\src/main.c:337
  td1 = 0;
  td2 = 0;
  td3 = 0;
  def = 0;
  start = 1;
  locks = 1;
  2a:	f883 6284 	strb.w	r6, [r3, #644]	; 0x284
D:\sunny\stm32\therme\Project\src/main.c:338
  eemodes = 0;
  2e:	4b46      	ldr	r3, [pc, #280]	; (148 <main+0x148>)
D:\sunny\stm32\therme\Project\src/main.c:339
  modes = 0;
  30:	f8df 8154 	ldr.w	r8, [pc, #340]	; 188 <main+0x188>
D:\sunny\stm32\therme\Project\src/main.c:338
  td2 = 0;
  td3 = 0;
  def = 0;
  start = 1;
  locks = 1;
  eemodes = 0;
  34:	701c      	strb	r4, [r3, #0]
D:\sunny\stm32\therme\Project\src/main.c:340
  modes = 0;
  locks_d = 0;
  36:	4b45      	ldr	r3, [pc, #276]	; (14c <main+0x14c>)
D:\sunny\stm32\therme\Project\src/main.c:336
  out_off(d7);
  td1 = 0;
  td2 = 0;
  td3 = 0;
  def = 0;
  start = 1;
  38:	703e      	strb	r6, [r7, #0]
D:\sunny\stm32\therme\Project\src/main.c:340
  locks = 1;
  eemodes = 0;
  modes = 0;
  locks_d = 0;
  3a:	701c      	strb	r4, [r3, #0]
D:\sunny\stm32\therme\Project\src/main.c:352
  //IP4_ADDR(&ipaddr, 200,200,2,95); // 10.1.1.8 //  200,200,2, 95 //
  //IP4_ADDR(&netmask, 255, 255, 255, 0);
  //IP4_ADDR(&gw, 10, 1, 1, 1); //10, 1,1, 1
  //  
  
	IP4_ADDR(&ip_ipaddr, 200,200,2,95); // 10.1.1.8 //  200,200,2, 95 //
  3c:	4b44      	ldr	r3, [pc, #272]	; (150 <main+0x150>)
D:\sunny\stm32\therme\Project\src/main.c:339
  td3 = 0;
  def = 0;
  start = 1;
  locks = 1;
  eemodes = 0;
  modes = 0;
  3e:	f888 4000 	strb.w	r4, [r8]
D:\sunny\stm32\therme\Project\src/main.c:352
  //IP4_ADDR(&ipaddr, 200,200,2,95); // 10.1.1.8 //  200,200,2, 95 //
  //IP4_ADDR(&netmask, 255, 255, 255, 0);
  //IP4_ADDR(&gw, 10, 1, 1, 1); //10, 1,1, 1
  //  
  
	IP4_ADDR(&ip_ipaddr, 200,200,2,95); // 10.1.1.8 //  200,200,2, 95 //
  42:	601a      	str	r2, [r3, #0]
D:\sunny\stm32\therme\Project\src/main.c:353
  IP4_ADDR(&ip_netmask, 255, 255, 255, 0);
  44:	4b43      	ldr	r3, [pc, #268]	; (154 <main+0x154>)
  46:	f06f 427f 	mvn.w	r2, #4278190080	; 0xff000000
  4a:	601a      	str	r2, [r3, #0]
D:\sunny\stm32\therme\Project\src/main.c:354
  IP4_ADDR(&ip_gw, 200, 200, 2, 1); //10, 1,1, 1
  4c:	4a42      	ldr	r2, [pc, #264]	; (158 <main+0x158>)
  4e:	4b43      	ldr	r3, [pc, #268]	; (15c <main+0x15c>)
D:\sunny\stm32\therme\Project\src/main.c:341
  start = 1;
  locks = 1;
  eemodes = 0;
  modes = 0;
  locks_d = 0;
  err_c[0] = 0;
  50:	702c      	strb	r4, [r5, #0]
D:\sunny\stm32\therme\Project\src/main.c:354
  //IP4_ADDR(&gw, 10, 1, 1, 1); //10, 1,1, 1
  //  
  
	IP4_ADDR(&ip_ipaddr, 200,200,2,95); // 10.1.1.8 //  200,200,2, 95 //
  IP4_ADDR(&ip_netmask, 255, 255, 255, 0);
  IP4_ADDR(&ip_gw, 200, 200, 2, 1); //10, 1,1, 1
  52:	601a      	str	r2, [r3, #0]
D:\sunny\stm32\therme\Project\src/main.c:342
  locks = 1;
  eemodes = 0;
  modes = 0;
  locks_d = 0;
  err_c[0] = 0;
  err_c[1] = 0;
  54:	706c      	strb	r4, [r5, #1]
D:\sunny\stm32\therme\Project\src/main.c:343
  err_c[2] = 0;
  56:	70ac      	strb	r4, [r5, #2]
D:\sunny\stm32\therme\Project\src/main.c:344
  err_c[3] = 0;
  58:	70ec      	strb	r4, [r5, #3]
D:\sunny\stm32\therme\Project\src/main.c:364
*/
  //ET_STM32_USART_Init();

  /* Initilaize the LwIP satck */
  modes = 0;
  ET_STM32_USART_Init(); // add at
  5a:	f7ff fffe 	bl	0 <ET_STM32_USART_Init>
D:\sunny\stm32\therme\Project\src/main.c:366
  
  LwIP_Init();
  5e:	f7ff fffe 	bl	0 <LwIP_Init>
D:\sunny\stm32\therme\Project\src/main.c:368
  
  HelloWorld_init();
  62:	f7ff fffe 	bl	0 <HelloWorld_init>
D:\sunny\stm32\therme\Project\src/main.c:371

    
  httpd_init();
  66:	f7ff fffe 	bl	0 <httpd_init>
D:\sunny\stm32\therme\Project\src/main.c:374
  //tftpd_init();
  //client_init();
  tr = 0;
  6a:	4b3d      	ldr	r3, [pc, #244]	; (160 <main+0x160>)
  6c:	601c      	str	r4, [r3, #0]
D:\sunny\stm32\therme\Project\src/main.c:377
  
  //printU(0);
  melloc_ar();
  6e:	f7ff fffe 	bl	0 <main>
D:\sunny\stm32\therme\Project\src/main.c:380
  

  I2C_EE_Init();
  72:	f7ff fffe 	bl	0 <I2C_EE_Init>
D:\sunny\stm32\therme\Project\src/main.c:382
  // buz_on;
  out_on(d7);
  76:	2007      	movs	r0, #7
  78:	f7ff fffe 	bl	0 <out_on>
D:\sunny\stm32\therme\Project\src/main.c:383
  led_ = 0xff;
  7c:	4b39      	ldr	r3, [pc, #228]	; (164 <main+0x164>)
  7e:	22ff      	movs	r2, #255	; 0xff
  80:	701a      	strb	r2, [r3, #0]
D:\sunny\stm32\therme\Project\src/main.c:386

  //i2c_rr();
	read_ebuff(ebuff);
  82:	4839      	ldr	r0, [pc, #228]	; (168 <main+0x168>)
  84:	f7ff fffe 	bl	0 <main>
D:\sunny\stm32\therme\Project\src/main.c:394
	
  //'Call I2c_mcp23016_write(&H04 , &Hff , &Hff) 'Invert All Input Polarities
  //'Call I2c_mcp23016_write(&H0a , &H01 , &H01) 'Initialize Iares , For Fast Input Scan Mode

  //write_to_MCP(mcp1, IPOL0, 0x00, 0xf0); // NonInvert all input polarities if active low.
  write_to_MCP(mcp1, 0x06, 0x00, 0xf0); //initiallize the ouput latch
  88:	2040      	movs	r0, #64	; 0x40
  8a:	2106      	movs	r1, #6
  8c:	4622      	mov	r2, r4
  8e:	23f0      	movs	r3, #240	; 0xf0
  90:	f7ff fffe 	bl	0 <write_to_MCP>
D:\sunny\stm32\therme\Project\src/main.c:395
  write_to_MCP(mcp1, 0x02, 0x00, 0x0f); //initiallize it so the LSBs outputs are  & MSBs are inputs
  94:	2040      	movs	r0, #64	; 0x40
  96:	2102      	movs	r1, #2
  98:	4622      	mov	r2, r4
  9a:	230f      	movs	r3, #15
  9c:	f7ff fffe 	bl	0 <write_to_MCP>
D:\sunny\stm32\therme\Project\src/main.c:397

  write_to_MCP(mcp2, 0x06, 0x00, 0x00); //initiallize it so the LSBs outputs are  & MSBs are inputs 7f all
  a0:	204e      	movs	r0, #78	; 0x4e
  a2:	2106      	movs	r1, #6
  a4:	4622      	mov	r2, r4
  a6:	4623      	mov	r3, r4
  a8:	f7ff fffe 	bl	0 <write_to_MCP>
D:\sunny\stm32\therme\Project\src/main.c:398
  write_to_MCP(mcp2, 0x02, 0x00, 0x00); //initiallize the ouput latch
  ac:	204e      	movs	r0, #78	; 0x4e
  ae:	4622      	mov	r2, r4
  b0:	4623      	mov	r3, r4
  b2:	2102      	movs	r1, #2
  b4:	f7ff fffe 	bl	0 <write_to_MCP>
D:\sunny\stm32\therme\Project\src/main.c:406
  //write_to_MCP(mcp3, 0x02, 0x00, 0xff);	  //initiallize it so the LSBs outputs are  & MSBs are inputs

  //write_to_MCP(mcp4, 0x06, 0x00, 0x00);	  //initiallize it so the LSBs outputs are  & MSBs are inputs 7f all
  //write_to_MCP(mcp4, 0x02, 0x00, 0x00);	  //initiallize the ouput latch

  Ds1302_int();
  b8:	f7ff fffe 	bl	0 <main>
D:\sunny\stm32\therme\Project\src/main.c:407
	Read_RTC();
  bc:	f7ff fffe 	bl	0 <main>
D:\sunny\stm32\therme\Project\src/main.c:412
  //show_rtc();

  //I2C_EE_BufferRead(ebuff,0x01,30);

  clear_delayfn();
  c0:	f7ff fffe 	bl	0 <main>
D:\sunny\stm32\therme\Project\src/main.c:413
  delay_fin[0] = 1;
  c4:	4b29      	ldr	r3, [pc, #164]	; (16c <main+0x16c>)
D:\sunny\stm32\therme\Project\src/main.c:421
  adc_p2 = 0;
  sdoor = 0;
  //test_i2c();
  // MENU_int1();
  //printU(3);
  buz_off;
  c6:	f44f 4200 	mov.w	r2, #32768	; 0x8000
D:\sunny\stm32\therme\Project\src/main.c:413
  //show_rtc();

  //I2C_EE_BufferRead(ebuff,0x01,30);

  clear_delayfn();
  delay_fin[0] = 1;
  ca:	681b      	ldr	r3, [r3, #0]
D:\sunny\stm32\therme\Project\src/main.c:426
  buz_off;
  //IP4_ADDR(&server, 192,168,1,2);
	tsa = 0;
	modes = 0;
	
  if (RCC_GetFlagStatus(RCC_FLAG_IWDGRST) != RESET)
  cc:	207d      	movs	r0, #125	; 0x7d
D:\sunny\stm32\therme\Project\src/main.c:413
  //show_rtc();

  //I2C_EE_BufferRead(ebuff,0x01,30);

  clear_delayfn();
  delay_fin[0] = 1;
  ce:	701e      	strb	r6, [r3, #0]
D:\sunny\stm32\therme\Project\src/main.c:415
  start = 1;
  adc_p1 = 0;
  d0:	4b27      	ldr	r3, [pc, #156]	; (170 <main+0x170>)
D:\sunny\stm32\therme\Project\src/main.c:414

  //I2C_EE_BufferRead(ebuff,0x01,30);

  clear_delayfn();
  delay_fin[0] = 1;
  start = 1;
  d2:	703e      	strb	r6, [r7, #0]
D:\sunny\stm32\therme\Project\src/main.c:415
  adc_p1 = 0;
  d4:	601c      	str	r4, [r3, #0]
D:\sunny\stm32\therme\Project\src/main.c:416
  adc_p2 = 0;
  d6:	4b27      	ldr	r3, [pc, #156]	; (174 <main+0x174>)
  d8:	601c      	str	r4, [r3, #0]
D:\sunny\stm32\therme\Project\src/main.c:417
  sdoor = 0;
  da:	4b27      	ldr	r3, [pc, #156]	; (178 <main+0x178>)
  dc:	701c      	strb	r4, [r3, #0]
D:\sunny\stm32\therme\Project\src/main.c:421
  //test_i2c();
  // MENU_int1();
  //printU(3);
  buz_off;
  de:	4b27      	ldr	r3, [pc, #156]	; (17c <main+0x17c>)
  e0:	615a      	str	r2, [r3, #20]
D:\sunny\stm32\therme\Project\src/main.c:423
  //IP4_ADDR(&server, 192,168,1,2);
	tsa = 0;
  e2:	4b27      	ldr	r3, [pc, #156]	; (180 <main+0x180>)
D:\sunny\stm32\therme\Project\src/main.c:424
	modes = 0;
  e4:	f888 4000 	strb.w	r4, [r8]
D:\sunny\stm32\therme\Project\src/main.c:423
  //test_i2c();
  // MENU_int1();
  //printU(3);
  buz_off;
  //IP4_ADDR(&server, 192,168,1,2);
	tsa = 0;
  e8:	601c      	str	r4, [r3, #0]
D:\sunny\stm32\therme\Project\src/main.c:426
	modes = 0;
	
  if (RCC_GetFlagStatus(RCC_FLAG_IWDGRST) != RESET)
  ea:	f7ff fffe 	bl	0 <RCC_GetFlagStatus>
  ee:	b118      	cbz	r0, a <RCC_ClearFlag+0xa>
D:\sunny\stm32\therme\Project\src/main.c:429
  {

    RCC_ClearFlag();
  f0:	f7ff fffe 	bl	0 <RCC_ClearFlag>
D:\sunny\stm32\therme\Project\src/main.c:430
	start = 0;
  f4:	703c      	strb	r4, [r7, #0]
D:\sunny\stm32\therme\Project\src/main.c:431
	err_c[3] = 1;
  f6:	70ee      	strb	r6, [r5, #3]
D:\sunny\stm32\therme\Project\src/main.c:438
  else
  {

  }
  
  IWDG_WriteAccessCmd(IWDG_WriteAccess_Enable);
  f8:	f245 5055 	movw	r0, #21845	; 0x5555
  fc:	f7ff fffe 	bl	0 <IWDG_WriteAccessCmd>
D:\sunny\stm32\therme\Project\src/main.c:440

  IWDG_SetPrescaler(IWDG_Prescaler_32);
 100:	2003      	movs	r0, #3
 102:	f7ff fffe 	bl	0 <IWDG_SetPrescaler>
D:\sunny\stm32\therme\Project\src/main.c:442

  IWDG_SetReload(349);
 106:	f240 105d 	movw	r0, #349	; 0x15d
 10a:	f7ff fffe 	bl	0 <IWDG_SetReload>
D:\sunny\stm32\therme\Project\src/main.c:444

  IWDG_ReloadCounter();
 10e:	f7ff fffe 	bl	0 <IWDG_ReloadCounter>
D:\sunny\stm32\therme\Project\src/main.c:446

  IWDG_Enable();
 112:	f7ff fffe 	bl	0 <IWDG_Enable>
D:\sunny\stm32\therme\Project\src/main.c:448
  
  MENU_int1();
 116:	f7ff fffe 	bl	0 <main>
D:\sunny\stm32\therme\Project\src/main.c:463

  //  set_led_on(led_2);
  //  set_led_on(led_3);
  //set_date(0,20,22,3,13,9,11);
  // 
  ssa = 0;
 11a:	4b1a      	ldr	r3, [pc, #104]	; (184 <main+0x184>)
 11c:	2200      	movs	r2, #0
 11e:	701a      	strb	r2, [r3, #0]
D:\sunny\stm32\therme\Project\src/main.c:472
  while (1)
    {
		//sprintf(uart_buf, "mcp2\r\n");
		//printUART1((unsigned int *) uart_buf);
		//printUART2((unsigned int *) uart_buf);
		System_Periodic_Handle();
 120:	f7ff fffe 	bl	0 <main>
 124:	e7fc      	b.n	120 <main+0x120>
 126:	bf00      	nop
	...
 134:	5f02c8c8 	.word	0x5f02c8c8
	...
 158:	0102c8c8 	.word	0x0102c8c8
	...
 17c:	40011800 	.word	0x40011800
	...
